((lp1
F0
aF0.10000000000000001
aF0.20000000000000001
aF0.30000000000000004
aF0.40000000000000002
aF0.5
aF0.59999999999999998
aF0.69999999999999996
aF0.79999999999999993
aF0.89999999999999991
aF0.99999999999999989
aF1.0999999999999999
aF1.2
aF1.3
aF1.4000000000000001
aF1.5000000000000002
aF1.6000000000000003
aF1.7000000000000004
aF1.8000000000000005
aF1.9000000000000006
aF2.0000000000000004
aF2.1000000000000005
aF2.2000000000000006
aF2.3000000000000007
aF2.4000000000000008
aF2.5000000000000009
aF2.600000000000001
aF2.7000000000000011
aF2.8000000000000012
aF2.9000000000000012
aF3.0000000000000013
aF3.1000000000000014
aF3.2000000000000015
aF3.3000000000000016
aF3.4000000000000017
aF3.5000000000000018
aF3.6000000000000019
aF3.700000000000002
aF3.800000000000002
aF3.9000000000000021
aF4.0000000000000018
aF4.1000000000000014
aF4.2000000000000011
aF4.3000000000000007
aF4.4000000000000004
aF4.5
aF4.5999999999999996
aF4.6999999999999993
aF4.7999999999999989
aF4.8999999999999986
aF4.9999999999999982
aF5.0999999999999979
aF5.1999999999999975
aF5.2999999999999972
aF5.3999999999999968
aF5.4999999999999964
aF5.5999999999999961
aF5.6999999999999957
aF5.7999999999999954
aF5.899999999999995
aF5.9999999999999947
aF6.0999999999999943
aF6.199999999999994
aF6.2999999999999936
aF6.3999999999999932
aF6.4999999999999929
aF6.5999999999999925
aF6.6999999999999922
aF6.7999999999999918
aF6.8999999999999915
aF6.9999999999999911
aF7.0999999999999908
aF7.1999999999999904
aF7.2999999999999901
aF7.3999999999999897
aF7.4999999999999893
aF7.599999999999989
aF7.6999999999999886
aF7.7999999999999883
aF7.8999999999999879
aF7.9999999999999876
aF8.0999999999999872
aF8.1999999999999869
aF8.2999999999999865
aF8.3999999999999861
aF8.4999999999999858
aF8.5999999999999854
aF8.6999999999999851
aF8.7999999999999847
aF8.8999999999999844
aF8.999999999999984
aF9.0999999999999837
aF9.1999999999999833
aF9.2999999999999829
aF9.3999999999999826
aF9.4999999999999822
aF9.5999999999999819
aF9.6999999999999815
aF9.7999999999999812
aF9.8999999999999808
aF9.9999999999999805
aF10.09999999999998
aF10.19999999999998
aF10.299999999999979
aF10.399999999999979
aF10.499999999999979
aF10.599999999999978
aF10.699999999999978
aF10.799999999999978
aF10.899999999999977
aF10.999999999999977
aF11.099999999999977
aF11.199999999999976
aF11.299999999999976
aF11.399999999999975
aF11.499999999999975
aF11.599999999999975
aF11.699999999999974
aF11.799999999999974
aF11.899999999999974
aF11.999999999999973
aF12.099999999999973
aF12.199999999999973
aF12.299999999999972
aF12.399999999999972
aF12.499999999999972
aF12.599999999999971
aF12.699999999999971
aF12.799999999999971
aF12.89999999999997
aF12.99999999999997
aF13.099999999999969
aF13.199999999999969
aF13.299999999999969
aF13.399999999999968
aF13.499999999999968
aF13.599999999999968
aF13.699999999999967
aF13.799999999999967
aF13.899999999999967
aF13.999999999999966
aF14.099999999999966
aF14.199999999999966
aF14.299999999999965
aF14.399999999999965
aF14.499999999999964
aF14.599999999999964
aF14.699999999999964
aF14.799999999999963
aF14.899999999999963
aF14.999999999999963
aF15.099999999999962
aF15.199999999999962
aF15.299999999999962
aF15.399999999999961
aF15.499999999999961
aF15.599999999999961
aF15.69999999999996
aF15.79999999999996
aF15.899999999999959
aF15.999999999999959
aF16.099999999999959
aF16.19999999999996
aF16.299999999999962
aF16.399999999999963
aF16.499999999999964
aF16.599999999999966
aF16.699999999999967
aF16.799999999999969
aF16.89999999999997
aF16.999999999999972
aF17.099999999999973
aF17.199999999999974
aF17.299999999999976
aF17.399999999999977
aF17.499999999999979
aF17.59999999999998
aF17.699999999999982
aF17.799999999999983
aF17.899999999999984
aF17.999999999999986
aF18.099999999999987
aF18.199999999999989
aF18.29999999999999
aF18.399999999999991
aF18.499999999999993
aF18.599999999999994
aF18.699999999999996
aF18.799999999999997
aF18.899999999999999
aF19
aF19.100000000000001
aF19.200000000000003
aF19.300000000000004
aF19.400000000000006
aF19.500000000000007
aF19.600000000000009
aF19.70000000000001
aF19.800000000000011
aF19.900000000000013
aF20.000000000000014
aF20.100000000000016
aF20.200000000000017
aF20.300000000000018
aF20.40000000000002
aF20.500000000000021
aF20.600000000000023
aF20.700000000000024
aF20.800000000000026
aF20.900000000000027
aF21.000000000000028
aF21.10000000000003
aF21.200000000000031
aF21.300000000000033
aF21.400000000000034
aF21.500000000000036
aF21.600000000000037
aF21.700000000000038
aF21.80000000000004
aF21.900000000000041
aF22.000000000000043
aF22.100000000000044
aF22.200000000000045
aF22.300000000000047
aF22.400000000000048
aF22.50000000000005
aF22.600000000000051
aF22.700000000000053
aF22.800000000000054
aF22.900000000000055
aF23.000000000000057
aF23.100000000000058
aF23.20000000000006
aF23.300000000000061
aF23.400000000000063
aF23.500000000000064
aF23.600000000000065
aF23.700000000000067
aF23.800000000000068
aF23.90000000000007
aF24.000000000000071
aF24.100000000000072
aF24.200000000000074
aF24.300000000000075
aF24.400000000000077
aF24.500000000000078
aF24.60000000000008
aF24.700000000000081
aF24.800000000000082
aF24.900000000000084
aF25.000000000000085
aF25.100000000000087
aF25.200000000000088
aF25.30000000000009
aF25.400000000000091
aF25.500000000000092
aF25.600000000000094
aF25.700000000000095
aF25.800000000000097
aF25.900000000000098
aF26.000000000000099
aF26.100000000000101
aF26.200000000000102
aF26.300000000000104
aF26.400000000000105
aF26.500000000000107
aF26.600000000000108
aF26.700000000000109
aF26.800000000000111
aF26.900000000000112
aF27.000000000000114
aF27.100000000000115
aF27.200000000000117
aF27.300000000000118
aF27.400000000000119
aF27.500000000000121
aF27.600000000000122
aF27.700000000000124
aF27.800000000000125
aF27.900000000000126
aF28.000000000000128
aF28.100000000000129
aF28.200000000000131
aF28.300000000000132
aF28.400000000000134
aF28.500000000000135
aF28.600000000000136
aF28.700000000000138
aF28.800000000000139
aF28.900000000000141
aF29.000000000000142
aF29.100000000000144
aF29.200000000000145
aF29.300000000000146
aF29.400000000000148
aF29.500000000000149
aF29.600000000000151
aF29.700000000000152
aF29.800000000000153
aF29.900000000000155
aF30.000000000000156
aF30.100000000000158
aF30.200000000000159
aF30.300000000000161
aF30.400000000000162
aF30.500000000000163
aF30.600000000000165
aF30.700000000000166
aF30.800000000000168
aF30.900000000000169
aF31.000000000000171
aF31.100000000000172
aF31.200000000000173
aF31.300000000000175
aF31.400000000000176
aF31.500000000000178
aF31.600000000000179
aF31.70000000000018
aF31.800000000000182
aF31.900000000000183
aF32.000000000000185
aF32.100000000000186
aF32.200000000000188
aF32.300000000000189
aF32.40000000000019
aF32.500000000000192
aF32.600000000000193
aF32.700000000000195
aF32.800000000000196
aF32.900000000000198
aF33.000000000000199
aF33.1000000000002
aF33.200000000000202
aF33.300000000000203
aF33.400000000000205
aF33.500000000000206
aF33.600000000000207
aF33.700000000000209
aF33.80000000000021
aF33.900000000000212
aF34.000000000000213
aF34.100000000000215
aF34.200000000000216
aF34.300000000000217
aF34.400000000000219
aF34.50000000000022
aF34.600000000000222
aF34.700000000000223
aF34.800000000000225
aF34.900000000000226
aF35.000000000000227
aF35.100000000000229
aF35.20000000000023
aF35.300000000000232
aF35.400000000000233
aF35.500000000000234
aF35.600000000000236
aF35.700000000000237
aF35.800000000000239
aF35.90000000000024
aF36.000000000000242
aF36.100000000000243
aF36.200000000000244
aF36.300000000000246
aF36.400000000000247
aF36.500000000000249
aF36.60000000000025
aF36.700000000000252
aF36.800000000000253
aF36.900000000000254
aF37.000000000000256
aF37.100000000000257
aF37.200000000000259
aF37.30000000000026
aF37.400000000000261
aF37.500000000000263
aF37.600000000000264
aF37.700000000000266
aF37.800000000000267
aF37.900000000000269
aF38.00000000000027
aF38.100000000000271
aF38.200000000000273
aF38.300000000000274
aF38.400000000000276
aF38.500000000000277
aF38.600000000000279
aF38.70000000000028
aF38.800000000000281
aF38.900000000000283
aF39.000000000000284
aF39.100000000000286
aF39.200000000000287
aF39.300000000000288
aF39.40000000000029
aF39.500000000000291
aF39.600000000000293
aF39.700000000000294
aF39.800000000000296
aF39.900000000000297
aF40.000000000000298
aF40.1000000000003
aF40.200000000000301
aF40.300000000000303
aF40.400000000000304
aF40.500000000000306
aF40.600000000000307
aF40.700000000000308
aF40.80000000000031
aF40.900000000000311
aF41.000000000000313
aF41.100000000000314
aF41.200000000000315
aF41.300000000000317
aF41.400000000000318
aF41.50000000000032
aF41.600000000000321
aF41.700000000000323
aF41.800000000000324
aF41.900000000000325
aF42.000000000000327
aF42.100000000000328
aF42.20000000000033
aF42.300000000000331
aF42.400000000000333
aF42.500000000000334
aF42.600000000000335
aF42.700000000000337
aF42.800000000000338
aF42.90000000000034
aF43.000000000000341
aF43.100000000000342
aF43.200000000000344
aF43.300000000000345
aF43.400000000000347
aF43.500000000000348
aF43.60000000000035
aF43.700000000000351
aF43.800000000000352
aF43.900000000000354
aF44.000000000000355
aF44.100000000000357
aF44.200000000000358
aF44.30000000000036
aF44.400000000000361
aF44.500000000000362
aF44.600000000000364
aF44.700000000000365
aF44.800000000000367
aF44.900000000000368
aF45.000000000000369
aF45.100000000000371
aF45.200000000000372
aF45.300000000000374
aF45.400000000000375
aF45.500000000000377
aF45.600000000000378
aF45.700000000000379
aF45.800000000000381
aF45.900000000000382
aF46.000000000000384
aF46.100000000000385
aF46.200000000000387
aF46.300000000000388
aF46.400000000000389
aF46.500000000000391
aF46.600000000000392
aF46.700000000000394
aF46.800000000000395
aF46.900000000000396
aF47.000000000000398
aF47.100000000000399
aF47.200000000000401
aF47.300000000000402
aF47.400000000000404
aF47.500000000000405
aF47.600000000000406
aF47.700000000000408
aF47.800000000000409
aF47.900000000000411
aF48.000000000000412
aF48.100000000000414
aF48.200000000000415
aF48.300000000000416
aF48.400000000000418
aF48.500000000000419
aF48.600000000000421
aF48.700000000000422
aF48.800000000000423
aF48.900000000000425
aF49.000000000000426
aF49.100000000000428
aF49.200000000000429
aF49.300000000000431
aF49.400000000000432
aF49.500000000000433
aF49.600000000000435
aF49.700000000000436
aF49.800000000000438
aF49.900000000000439
aF50.000000000000441
aF50.100000000000442
aF50.200000000000443
aF50.300000000000445
aF50.400000000000446
aF50.500000000000448
aF50.600000000000449
aF50.70000000000045
aF50.800000000000452
aF50.900000000000453
aF51.000000000000455
aF51.100000000000456
aF51.200000000000458
aF51.300000000000459
aF51.40000000000046
aF51.500000000000462
aF51.600000000000463
aF51.700000000000465
aF51.800000000000466
aF51.900000000000468
aF52.000000000000469
aF52.10000000000047
aF52.200000000000472
aF52.300000000000473
aF52.400000000000475
aF52.500000000000476
aF52.600000000000477
aF52.700000000000479
aF52.80000000000048
aF52.900000000000482
aF53.000000000000483
aF53.100000000000485
aF53.200000000000486
aF53.300000000000487
aF53.400000000000489
aF53.50000000000049
aF53.600000000000492
aF53.700000000000493
aF53.800000000000495
aF53.900000000000496
aF54.000000000000497
aF54.100000000000499
aF54.2000000000005
aF54.300000000000502
aF54.400000000000503
aF54.500000000000504
aF54.600000000000506
aF54.700000000000507
aF54.800000000000509
aF54.90000000000051
aF55.000000000000512
aF55.100000000000513
aF55.200000000000514
aF55.300000000000516
aF55.400000000000517
aF55.500000000000519
aF55.60000000000052
aF55.700000000000522
aF55.800000000000523
aF55.900000000000524
aF56.000000000000526
aF56.100000000000527
aF56.200000000000529
aF56.30000000000053
aF56.400000000000531
aF56.500000000000533
aF56.600000000000534
aF56.700000000000536
aF56.800000000000537
aF56.900000000000539
aF57.00000000000054
aF57.100000000000541
aF57.200000000000543
aF57.300000000000544
aF57.400000000000546
aF57.500000000000547
aF57.600000000000549
aF57.70000000000055
aF57.800000000000551
aF57.900000000000553
aF58.000000000000554
aF58.100000000000556
aF58.200000000000557
aF58.300000000000558
aF58.40000000000056
aF58.500000000000561
aF58.600000000000563
aF58.700000000000564
aF58.800000000000566
aF58.900000000000567
aF59.000000000000568
aF59.10000000000057
aF59.200000000000571
aF59.300000000000573
aF59.400000000000574
aF59.500000000000576
aF59.600000000000577
aF59.700000000000578
aF59.80000000000058
aF59.900000000000581
aF60.000000000000583
aF60.100000000000584
aF60.200000000000585
aF60.300000000000587
aF60.400000000000588
aF60.50000000000059
aF60.600000000000591
aF60.700000000000593
aF60.800000000000594
aF60.900000000000595
aF61.000000000000597
aF61.100000000000598
aF61.2000000000006
aF61.300000000000601
aF61.400000000000603
aF61.500000000000604
aF61.600000000000605
aF61.700000000000607
aF61.800000000000608
aF61.90000000000061
aF62.000000000000611
aF62.100000000000612
aF62.200000000000614
aF62.300000000000615
aF62.400000000000617
aF62.500000000000618
aF62.60000000000062
aF62.700000000000621
aF62.800000000000622
aF62.900000000000624
aF63.000000000000625
aF63.100000000000627
aF63.200000000000628
aF63.30000000000063
aF63.400000000000631
aF63.500000000000632
aF63.600000000000634
aF63.700000000000635
aF63.800000000000637
aF63.900000000000638
aF64.000000000000639
aF64.100000000000634
aF64.200000000000628
aF64.300000000000622
aF64.400000000000617
aF64.500000000000611
aF64.600000000000605
aF64.7000000000006
aF64.800000000000594
aF64.900000000000588
aF65.000000000000583
aF65.100000000000577
aF65.200000000000571
aF65.300000000000566
aF65.40000000000056
aF65.500000000000554
aF65.600000000000549
aF65.700000000000543
aF65.800000000000537
aF65.900000000000531
aF66.000000000000526
aF66.10000000000052
aF66.200000000000514
aF66.300000000000509
aF66.400000000000503
aF66.500000000000497
aF66.600000000000492
aF66.700000000000486
aF66.80000000000048
aF66.900000000000475
aF67.000000000000469
aF67.100000000000463
aF67.200000000000458
aF67.300000000000452
aF67.400000000000446
aF67.500000000000441
aF67.600000000000435
aF67.700000000000429
aF67.800000000000423
aF67.900000000000418
aF68.000000000000412
aF68.100000000000406
aF68.200000000000401
aF68.300000000000395
aF68.400000000000389
aF68.500000000000384
aF68.600000000000378
aF68.700000000000372
aF68.800000000000367
aF68.900000000000361
aF69.000000000000355
aF69.10000000000035
aF69.200000000000344
aF69.300000000000338
aF69.400000000000333
aF69.500000000000327
aF69.600000000000321
aF69.700000000000315
aF69.80000000000031
aF69.900000000000304
aF70.000000000000298
aF70.100000000000293
aF70.200000000000287
aF70.300000000000281
aF70.400000000000276
aF70.50000000000027
aF70.600000000000264
aF70.700000000000259
aF70.800000000000253
aF70.900000000000247
aF71.000000000000242
aF71.100000000000236
aF71.20000000000023
aF71.300000000000225
aF71.400000000000219
aF71.500000000000213
aF71.600000000000207
aF71.700000000000202
aF71.800000000000196
aF71.90000000000019
aF72.000000000000185
aF72.100000000000179
aF72.200000000000173
aF72.300000000000168
aF72.400000000000162
aF72.500000000000156
aF72.600000000000151
aF72.700000000000145
aF72.800000000000139
aF72.900000000000134
aF73.000000000000128
aF73.100000000000122
aF73.200000000000117
aF73.300000000000111
aF73.400000000000105
aF73.500000000000099
aF73.600000000000094
aF73.700000000000088
aF73.800000000000082
aF73.900000000000077
aF74.000000000000071
aF74.100000000000065
aF74.20000000000006
aF74.300000000000054
aF74.400000000000048
aF74.500000000000043
aF74.600000000000037
aF74.700000000000031
aF74.800000000000026
aF74.90000000000002
aF75.000000000000014
aF75.100000000000009
aF75.200000000000003
aF75.299999999999997
aF75.399999999999991
aF75.499999999999986
aF75.59999999999998
aF75.699999999999974
aF75.799999999999969
aF75.899999999999963
aF75.999999999999957
aF76.099999999999952
aF76.199999999999946
aF76.29999999999994
aF76.399999999999935
aF76.499999999999929
aF76.599999999999923
aF76.699999999999918
aF76.799999999999912
aF76.899999999999906
aF76.999999999999901
aF77.099999999999895
aF77.199999999999889
aF77.299999999999883
aF77.399999999999878
aF77.499999999999872
aF77.599999999999866
aF77.699999999999861
aF77.799999999999855
aF77.899999999999849
aF77.999999999999844
aF78.099999999999838
aF78.199999999999832
aF78.299999999999827
aF78.399999999999821
aF78.499999999999815
aF78.59999999999981
aF78.699999999999804
aF78.799999999999798
aF78.899999999999793
aF78.999999999999787
aF79.099999999999781
aF79.199999999999775
aF79.29999999999977
aF79.399999999999764
aF79.499999999999758
aF79.599999999999753
aF79.699999999999747
aF79.799999999999741
aF79.899999999999736
aF79.99999999999973
aF80.099999999999724
aF80.199999999999719
aF80.299999999999713
aF80.399999999999707
aF80.499999999999702
aF80.599999999999696
aF80.69999999999969
aF80.799999999999685
aF80.899999999999679
aF80.999999999999673
aF81.099999999999667
aF81.199999999999662
aF81.299999999999656
aF81.39999999999965
aF81.499999999999645
aF81.599999999999639
aF81.699999999999633
aF81.799999999999628
aF81.899999999999622
aF81.999999999999616
aF82.099999999999611
aF82.199999999999605
aF82.299999999999599
aF82.399999999999594
aF82.499999999999588
aF82.599999999999582
aF82.699999999999577
aF82.799999999999571
aF82.899999999999565
aF82.999999999999559
aF83.099999999999554
aF83.199999999999548
aF83.299999999999542
aF83.399999999999537
aF83.499999999999531
aF83.599999999999525
aF83.69999999999952
aF83.799999999999514
aF83.899999999999508
aF83.999999999999503
aF84.099999999999497
aF84.199999999999491
aF84.299999999999486
aF84.39999999999948
aF84.499999999999474
aF84.599999999999469
aF84.699999999999463
aF84.799999999999457
aF84.899999999999451
aF84.999999999999446
aF85.09999999999944
aF85.199999999999434
aF85.299999999999429
aF85.399999999999423
aF85.499999999999417
aF85.599999999999412
aF85.699999999999406
aF85.7999999999994
aF85.899999999999395
aF85.999999999999389
aF86.099999999999383
aF86.199999999999378
aF86.299999999999372
aF86.399999999999366
aF86.499999999999361
aF86.599999999999355
aF86.699999999999349
aF86.799999999999343
aF86.899999999999338
aF86.999999999999332
aF87.099999999999326
aF87.199999999999321
aF87.299999999999315
aF87.399999999999309
aF87.499999999999304
aF87.599999999999298
aF87.699999999999292
aF87.799999999999287
aF87.899999999999281
aF87.999999999999275
aF88.09999999999927
aF88.199999999999264
aF88.299999999999258
aF88.399999999999253
aF88.499999999999247
aF88.599999999999241
aF88.699999999999235
aF88.79999999999923
aF88.899999999999224
aF88.999999999999218
aF89.099999999999213
aF89.199999999999207
aF89.299999999999201
aF89.399999999999196
aF89.49999999999919
aF89.599999999999184
aF89.699999999999179
aF89.799999999999173
aF89.899999999999167
aF89.999999999999162
aF90.099999999999156
aF90.19999999999915
aF90.299999999999145
aF90.399999999999139
aF90.499999999999133
aF90.599999999999127
aF90.699999999999122
aF90.799999999999116
aF90.89999999999911
aF90.999999999999105
aF91.099999999999099
aF91.199999999999093
aF91.299999999999088
aF91.399999999999082
aF91.499999999999076
aF91.599999999999071
aF91.699999999999065
aF91.799999999999059
aF91.899999999999054
aF91.999999999999048
aF92.099999999999042
aF92.199999999999037
aF92.299999999999031
aF92.399999999999025
aF92.499999999999019
aF92.599999999999014
aF92.699999999999008
aF92.799999999999002
aF92.899999999998997
aF92.999999999998991
aF93.099999999998985
aF93.19999999999898
aF93.299999999998974
aF93.399999999998968
aF93.499999999998963
aF93.599999999998957
aF93.699999999998951
aF93.799999999998946
aF93.89999999999894
aF93.999999999998934
aF94.099999999998929
aF94.199999999998923
aF94.299999999998917
aF94.399999999998911
aF94.499999999998906
aF94.5999999999989
aF94.699999999998894
aF94.799999999998889
aF94.899999999998883
aF94.999999999998877
aF95.099999999998872
aF95.199999999998866
aF95.29999999999886
aF95.399999999998855
aF95.499999999998849
aF95.599999999998843
aF95.699999999998838
aF95.799999999998832
aF95.899999999998826
aF95.99999999999882
aF96.099999999998815
aF96.199999999998809
aF96.299999999998803
aF96.399999999998798
aF96.499999999998792
aF96.599999999998786
aF96.699999999998781
aF96.799999999998775
aF96.899999999998769
aF96.999999999998764
aF97.099999999998758
aF97.199999999998752
aF97.299999999998747
aF97.399999999998741
aF97.499999999998735
aF97.59999999999873
aF97.699999999998724
aF97.799999999998718
aF97.899999999998712
aF97.999999999998707
aF98.099999999998701
aF98.199999999998695
aF98.29999999999869
aF98.399999999998684
aF98.499999999998678
aF98.599999999998673
aF98.699999999998667
aF98.799999999998661
aF98.899999999998656
aF98.99999999999865
aF99.099999999998644
aF99.199999999998639
aF99.299999999998633
aF99.399999999998627
aF99.499999999998622
aF99.599999999998616
aF99.69999999999861
aF99.799999999998604
aF99.899999999998599
aF99.999999999998593
aF100.09999999999859
aF100.19999999999858
aF100.29999999999858
aF100.39999999999857
aF100.49999999999856
aF100.59999999999856
aF100.69999999999855
aF100.79999999999855
aF100.89999999999854
aF100.99999999999854
aF101.09999999999853
aF101.19999999999852
aF101.29999999999852
aF101.39999999999851
aF101.49999999999851
aF101.5999999999985
aF101.6999999999985
aF101.79999999999849
aF101.89999999999849
aF101.99999999999848
aF102.09999999999847
aF102.19999999999847
aF102.29999999999846
aF102.39999999999846
aF102.49999999999845
aF102.59999999999845
aF102.69999999999844
aF102.79999999999843
aF102.89999999999843
aF102.99999999999842
aF103.09999999999842
aF103.19999999999841
aF103.29999999999841
aF103.3999999999984
aF103.49999999999839
aF103.59999999999839
aF103.69999999999838
aF103.79999999999838
aF103.89999999999837
aF103.99999999999837
aF104.09999999999836
aF104.19999999999835
aF104.29999999999835
aF104.39999999999834
aF104.49999999999834
aF104.59999999999833
aF104.69999999999833
aF104.79999999999832
aF104.89999999999831
aF104.99999999999831
aF105.0999999999983
aF105.1999999999983
aF105.29999999999829
aF105.39999999999829
aF105.49999999999828
aF105.59999999999827
aF105.69999999999827
aF105.79999999999826
aF105.89999999999826
aF105.99999999999825
aF106.09999999999825
aF106.19999999999824
aF106.29999999999824
aF106.39999999999823
aF106.49999999999822
aF106.59999999999822
aF106.69999999999821
aF106.79999999999821
aF106.8999999999982
aF106.9999999999982
aF107.09999999999819
aF107.19999999999818
aF107.29999999999818
aF107.39999999999817
aF107.49999999999817
aF107.59999999999816
aF107.69999999999816
aF107.79999999999815
aF107.89999999999814
aF107.99999999999814
aF108.09999999999813
aF108.19999999999813
aF108.29999999999812
aF108.39999999999812
aF108.49999999999811
aF108.5999999999981
aF108.6999999999981
aF108.79999999999809
aF108.89999999999809
aF108.99999999999808
aF109.09999999999808
aF109.19999999999807
aF109.29999999999806
aF109.39999999999806
aF109.49999999999805
aF109.59999999999805
aF109.69999999999804
aF109.79999999999804
aF109.89999999999803
aF109.99999999999802
aF110.09999999999802
aF110.19999999999801
aF110.29999999999801
aF110.399999999998
aF110.499999999998
aF110.59999999999799
aF110.69999999999798
aF110.79999999999798
aF110.89999999999797
aF110.99999999999797
aF111.09999999999796
aF111.19999999999796
aF111.29999999999795
aF111.39999999999795
aF111.49999999999794
aF111.59999999999793
aF111.69999999999793
aF111.79999999999792
aF111.89999999999792
aF111.99999999999791
aF112.09999999999791
aF112.1999999999979
aF112.29999999999789
aF112.39999999999789
aF112.49999999999788
aF112.59999999999788
aF112.69999999999787
aF112.79999999999787
aF112.89999999999786
aF112.99999999999785
aF113.09999999999785
aF113.19999999999784
aF113.29999999999784
aF113.39999999999783
aF113.49999999999783
aF113.59999999999782
aF113.69999999999781
aF113.79999999999781
aF113.8999999999978
aF113.9999999999978
aF114.09999999999779
aF114.19999999999779
aF114.29999999999778
aF114.39999999999777
aF114.49999999999777
aF114.59999999999776
aF114.69999999999776
aF114.79999999999775
aF114.89999999999775
aF114.99999999999774
aF115.09999999999773
aF115.19999999999773
aF115.29999999999772
aF115.39999999999772
aF115.49999999999771
aF115.59999999999771
aF115.6999999999977
aF115.79999999999769
aF115.89999999999769
aF115.99999999999768
aF116.09999999999768
aF116.19999999999767
aF116.29999999999767
aF116.39999999999766
aF116.49999999999766
aF116.59999999999765
aF116.69999999999764
aF116.79999999999764
aF116.89999999999763
aF116.99999999999763
aF117.09999999999762
aF117.19999999999762
aF117.29999999999761
aF117.3999999999976
aF117.4999999999976
aF117.59999999999759
aF117.69999999999759
aF117.79999999999758
aF117.89999999999758
aF117.99999999999757
aF118.09999999999756
aF118.19999999999756
aF118.29999999999755
aF118.39999999999755
aF118.49999999999754
aF118.59999999999754
aF118.69999999999753
aF118.79999999999752
aF118.89999999999752
aF118.99999999999751
aF119.09999999999751
aF119.1999999999975
aF119.2999999999975
aF119.39999999999749
aF119.49999999999748
aF119.59999999999748
aF119.69999999999747
aF119.79999999999747
aF119.89999999999746
aF119.99999999999746
aF120.09999999999745
aF120.19999999999744
aF120.29999999999744
aF120.39999999999743
aF120.49999999999743
aF120.59999999999742
aF120.69999999999742
aF120.79999999999741
aF120.89999999999741
aF120.9999999999974
aF121.09999999999739
aF121.19999999999739
aF121.29999999999738
aF121.39999999999738
aF121.49999999999737
aF121.59999999999737
aF121.69999999999736
aF121.79999999999735
aF121.89999999999735
aF121.99999999999734
aF122.09999999999734
aF122.19999999999733
aF122.29999999999733
aF122.39999999999732
aF122.49999999999731
aF122.59999999999731
aF122.6999999999973
aF122.7999999999973
aF122.89999999999729
aF122.99999999999729
aF123.09999999999728
aF123.19999999999727
aF123.29999999999727
aF123.39999999999726
aF123.49999999999726
aF123.59999999999725
aF123.69999999999725
aF123.79999999999724
aF123.89999999999723
aF123.99999999999723
aF124.09999999999722
aF124.19999999999722
aF124.29999999999721
aF124.39999999999721
aF124.4999999999972
aF124.59999999999719
aF124.69999999999719
aF124.79999999999718
aF124.89999999999718
aF124.99999999999717
aF125.09999999999717
aF125.19999999999716
aF125.29999999999715
aF125.39999999999715
aF125.49999999999714
aF125.59999999999714
aF125.69999999999713
aF125.79999999999713
aF125.89999999999712
aF125.99999999999712
aF126.09999999999711
aF126.1999999999971
aF126.2999999999971
aF126.39999999999709
aF126.49999999999709
aF126.59999999999708
aF126.69999999999708
aF126.79999999999707
aF126.89999999999706
aF126.99999999999706
aF127.09999999999705
aF127.19999999999705
aF127.29999999999704
aF127.39999999999704
aF127.49999999999703
aF127.59999999999702
aF127.69999999999702
aF127.79999999999701
aF127.89999999999701
aF127.999999999997
aF128.09999999999701
aF128.199999999997
aF128.299999999997
aF128.39999999999699
aF128.49999999999699
aF128.59999999999698
aF128.69999999999698
aF128.79999999999697
aF128.89999999999696
aF128.99999999999696
aF129.09999999999695
aF129.19999999999695
aF129.29999999999694
aF129.39999999999694
aF129.49999999999693
aF129.59999999999692
aF129.69999999999692
aF129.79999999999691
aF129.89999999999691
aF129.9999999999969
aF130.0999999999969
aF130.19999999999689
aF130.29999999999688
aF130.39999999999688
aF130.49999999999687
aF130.59999999999687
aF130.69999999999686
aF130.79999999999686
aF130.89999999999685
aF130.99999999999685
aF131.09999999999684
aF131.19999999999683
aF131.29999999999683
aF131.39999999999682
aF131.49999999999682
aF131.59999999999681
aF131.69999999999681
aF131.7999999999968
aF131.89999999999679
aF131.99999999999679
aF132.09999999999678
aF132.19999999999678
aF132.29999999999677
aF132.39999999999677
aF132.49999999999676
aF132.59999999999675
aF132.69999999999675
aF132.79999999999674
aF132.89999999999674
aF132.99999999999673
aF133.09999999999673
aF133.19999999999672
aF133.29999999999671
aF133.39999999999671
aF133.4999999999967
aF133.5999999999967
aF133.69999999999669
aF133.79999999999669
aF133.89999999999668
aF133.99999999999667
aF134.09999999999667
aF134.19999999999666
aF134.29999999999666
aF134.39999999999665
aF134.49999999999665
aF134.59999999999664
aF134.69999999999663
aF134.79999999999663
aF134.89999999999662
aF134.99999999999662
aF135.09999999999661
aF135.19999999999661
aF135.2999999999966
aF135.3999999999966
aF135.49999999999659
aF135.59999999999658
aF135.69999999999658
aF135.79999999999657
aF135.89999999999657
aF135.99999999999656
aF136.09999999999656
aF136.19999999999655
aF136.29999999999654
aF136.39999999999654
aF136.49999999999653
aF136.59999999999653
aF136.69999999999652
aF136.79999999999652
aF136.89999999999651
aF136.9999999999965
aF137.0999999999965
aF137.19999999999649
aF137.29999999999649
aF137.39999999999648
aF137.49999999999648
aF137.59999999999647
aF137.69999999999646
aF137.79999999999646
aF137.89999999999645
aF137.99999999999645
aF138.09999999999644
aF138.19999999999644
aF138.29999999999643
aF138.39999999999642
aF138.49999999999642
aF138.59999999999641
aF138.69999999999641
aF138.7999999999964
aF138.8999999999964
aF138.99999999999639
aF139.09999999999638
aF139.19999999999638
aF139.29999999999637
aF139.39999999999637
aF139.49999999999636
aF139.59999999999636
aF139.69999999999635
aF139.79999999999634
aF139.89999999999634
aF139.99999999999633
aF140.09999999999633
aF140.19999999999632
aF140.29999999999632
aF140.39999999999631
aF140.49999999999631
aF140.5999999999963
aF140.69999999999629
aF140.79999999999629
aF140.89999999999628
aF140.99999999999628
aF141.09999999999627
aF141.19999999999627
aF141.29999999999626
aF141.39999999999625
aF141.49999999999625
aF141.59999999999624
aF141.69999999999624
aF141.79999999999623
aF141.89999999999623
aF141.99999999999622
aF142.09999999999621
aF142.19999999999621
aF142.2999999999962
aF142.3999999999962
aF142.49999999999619
aF142.59999999999619
aF142.69999999999618
aF142.79999999999617
aF142.89999999999617
aF142.99999999999616
aF143.09999999999616
aF143.19999999999615
aF143.29999999999615
aF143.39999999999614
aF143.49999999999613
aF143.59999999999613
aF143.69999999999612
aF143.79999999999612
aF143.89999999999611
aF143.99999999999611
aF144.0999999999961
aF144.19999999999609
aF144.29999999999609
aF144.39999999999608
aF144.49999999999608
aF144.59999999999607
aF144.69999999999607
aF144.79999999999606
aF144.89999999999606
aF144.99999999999605
aF145.09999999999604
aF145.19999999999604
aF145.29999999999603
aF145.39999999999603
aF145.49999999999602
aF145.59999999999602
aF145.69999999999601
aF145.799999999996
aF145.899999999996
aF145.99999999999599
aF146.09999999999599
aF146.19999999999598
aF146.29999999999598
aF146.39999999999597
aF146.49999999999596
aF146.59999999999596
aF146.69999999999595
aF146.79999999999595
aF146.89999999999594
aF146.99999999999594
aF147.09999999999593
aF147.19999999999592
aF147.29999999999592
aF147.39999999999591
aF147.49999999999591
aF147.5999999999959
aF147.6999999999959
aF147.79999999999589
aF147.89999999999588
aF147.99999999999588
aF148.09999999999587
aF148.19999999999587
aF148.29999999999586
aF148.39999999999586
aF148.49999999999585
aF148.59999999999584
aF148.69999999999584
aF148.79999999999583
aF148.89999999999583
aF148.99999999999582
aF149.09999999999582
aF149.19999999999581
aF149.2999999999958
aF149.3999999999958
aF149.49999999999579
aF149.59999999999579
aF149.69999999999578
aF149.79999999999578
aF149.89999999999577
aF149.99999999999577
aF150.09999999999576
aF150.19999999999575
aF150.29999999999575
aF150.39999999999574
aF150.49999999999574
aF150.59999999999573
aF150.69999999999573
aF150.79999999999572
aF150.89999999999571
aF150.99999999999571
aF151.0999999999957
aF151.1999999999957
aF151.29999999999569
aF151.39999999999569
aF151.49999999999568
aF151.59999999999567
aF151.69999999999567
aF151.79999999999566
aF151.89999999999566
aF151.99999999999565
aF152.09999999999565
aF152.19999999999564
aF152.29999999999563
aF152.39999999999563
aF152.49999999999562
aF152.59999999999562
aF152.69999999999561
aF152.79999999999561
aF152.8999999999956
aF152.99999999999559
aF153.09999999999559
aF153.19999999999558
aF153.29999999999558
aF153.39999999999557
aF153.49999999999557
aF153.59999999999556
aF153.69999999999555
aF153.79999999999555
aF153.89999999999554
aF153.99999999999554
aF154.09999999999553
aF154.19999999999553
aF154.29999999999552
aF154.39999999999552
aF154.49999999999551
aF154.5999999999955
aF154.6999999999955
aF154.79999999999549
aF154.89999999999549
aF154.99999999999548
aF155.09999999999548
aF155.19999999999547
aF155.29999999999546
aF155.39999999999546
aF155.49999999999545
aF155.59999999999545
aF155.69999999999544
aF155.79999999999544
aF155.89999999999543
aF155.99999999999542
aF156.09999999999542
aF156.19999999999541
aF156.29999999999541
aF156.3999999999954
aF156.4999999999954
aF156.59999999999539
aF156.69999999999538
aF156.79999999999538
aF156.89999999999537
aF156.99999999999537
aF157.09999999999536
aF157.19999999999536
aF157.29999999999535
aF157.39999999999534
aF157.49999999999534
aF157.59999999999533
aF157.69999999999533
aF157.79999999999532
aF157.89999999999532
aF157.99999999999531
aF158.0999999999953
aF158.1999999999953
aF158.29999999999529
aF158.39999999999529
aF158.49999999999528
aF158.59999999999528
aF158.69999999999527
aF158.79999999999526
aF158.89999999999526
aF158.99999999999525
aF159.09999999999525
aF159.19999999999524
aF159.29999999999524
aF159.39999999999523
aF159.49999999999523
aF159.59999999999522
aF159.69999999999521
aF159.79999999999521
aF159.8999999999952
aF159.9999999999952
aF160.09999999999519
aF160.19999999999519
aF160.29999999999518
aF160.39999999999517
aF160.49999999999517
aF160.59999999999516
aF160.69999999999516
aF160.79999999999515
aF160.89999999999515
aF160.99999999999514
aF161.09999999999513
aF161.19999999999513
aF161.29999999999512
aF161.39999999999512
aF161.49999999999511
aF161.59999999999511
aF161.6999999999951
aF161.79999999999509
aF161.89999999999509
aF161.99999999999508
aF162.09999999999508
aF162.19999999999507
aF162.29999999999507
aF162.39999999999506
aF162.49999999999505
aF162.59999999999505
aF162.69999999999504
aF162.79999999999504
aF162.89999999999503
aF162.99999999999503
aF163.09999999999502
aF163.19999999999501
aF163.29999999999501
aF163.399999999995
aF163.499999999995
aF163.59999999999499
aF163.69999999999499
aF163.79999999999498
aF163.89999999999498
aF163.99999999999497
aF164.09999999999496
aF164.19999999999496
aF164.29999999999495
aF164.39999999999495
aF164.49999999999494
aF164.59999999999494
aF164.69999999999493
aF164.79999999999492
aF164.89999999999492
aF164.99999999999491
aF165.09999999999491
aF165.1999999999949
aF165.2999999999949
aF165.39999999999489
aF165.49999999999488
aF165.59999999999488
aF165.69999999999487
aF165.79999999999487
aF165.89999999999486
aF165.99999999999486
aF166.09999999999485
aF166.19999999999484
aF166.29999999999484
aF166.39999999999483
aF166.49999999999483
aF166.59999999999482
aF166.69999999999482
aF166.79999999999481
aF166.8999999999948
aF166.9999999999948
aF167.09999999999479
aF167.19999999999479
aF167.29999999999478
aF167.39999999999478
aF167.49999999999477
aF167.59999999999476
aF167.69999999999476
aF167.79999999999475
aF167.89999999999475
aF167.99999999999474
aF168.09999999999474
aF168.19999999999473
aF168.29999999999472
aF168.39999999999472
aF168.49999999999471
aF168.59999999999471
aF168.6999999999947
aF168.7999999999947
aF168.89999999999469
aF168.99999999999469
aF169.09999999999468
aF169.19999999999467
aF169.29999999999467
aF169.39999999999466
aF169.49999999999466
aF169.59999999999465
aF169.69999999999465
aF169.79999999999464
aF169.89999999999463
aF169.99999999999463
aF170.09999999999462
aF170.19999999999462
aF170.29999999999461
aF170.39999999999461
aF170.4999999999946
aF170.59999999999459
aF170.69999999999459
aF170.79999999999458
aF170.89999999999458
aF170.99999999999457
aF171.09999999999457
aF171.19999999999456
aF171.29999999999455
aF171.39999999999455
aF171.49999999999454
aF171.59999999999454
aF171.69999999999453
aF171.79999999999453
aF171.89999999999452
aF171.99999999999451
aF172.09999999999451
aF172.1999999999945
aF172.2999999999945
aF172.39999999999449
aF172.49999999999449
aF172.59999999999448
aF172.69999999999447
aF172.79999999999447
aF172.89999999999446
aF172.99999999999446
aF173.09999999999445
aF173.19999999999445
aF173.29999999999444
aF173.39999999999444
aF173.49999999999443
aF173.59999999999442
aF173.69999999999442
aF173.79999999999441
aF173.89999999999441
aF173.9999999999944
aF174.0999999999944
aF174.19999999999439
aF174.29999999999438
aF174.39999999999438
aF174.49999999999437
aF174.59999999999437
aF174.69999999999436
aF174.79999999999436
aF174.89999999999435
aF174.99999999999434
aF175.09999999999434
aF175.19999999999433
aF175.29999999999433
aF175.39999999999432
aF175.49999999999432
aF175.59999999999431
aF175.6999999999943
aF175.7999999999943
aF175.89999999999429
aF175.99999999999429
aF176.09999999999428
aF176.19999999999428
aF176.29999999999427
aF176.39999999999426
aF176.49999999999426
aF176.59999999999425
aF176.69999999999425
aF176.79999999999424
aF176.89999999999424
aF176.99999999999423
aF177.09999999999422
aF177.19999999999422
aF177.29999999999421
aF177.39999999999421
aF177.4999999999942
aF177.5999999999942
aF177.69999999999419
aF177.79999999999418
aF177.89999999999418
aF177.99999999999417
aF178.09999999999417
aF178.19999999999416
aF178.29999999999416
aF178.39999999999415
aF178.49999999999415
aF178.59999999999414
aF178.69999999999413
aF178.79999999999413
aF178.89999999999412
aF178.99999999999412
aF179.09999999999411
aF179.19999999999411
aF179.2999999999941
aF179.39999999999409
aF179.49999999999409
aF179.59999999999408
aF179.69999999999408
aF179.79999999999407
aF179.89999999999407
aF179.99999999999406
aF180.09999999999405
aF180.19999999999405
aF180.29999999999404
aF180.39999999999404
aF180.49999999999403
aF180.59999999999403
aF180.69999999999402
aF180.79999999999401
aF180.89999999999401
aF180.999999999994
aF181.099999999994
aF181.19999999999399
aF181.29999999999399
aF181.39999999999398
aF181.49999999999397
aF181.59999999999397
aF181.69999999999396
aF181.79999999999396
aF181.89999999999395
aF181.99999999999395
aF182.09999999999394
aF182.19999999999393
aF182.29999999999393
aF182.39999999999392
aF182.49999999999392
aF182.59999999999391
aF182.69999999999391
aF182.7999999999939
aF182.8999999999939
aF182.99999999999389
aF183.09999999999388
aF183.19999999999388
aF183.29999999999387
aF183.39999999999387
aF183.49999999999386
aF183.59999999999386
aF183.69999999999385
aF183.79999999999384
aF183.89999999999384
aF183.99999999999383
aF184.09999999999383
aF184.19999999999382
aF184.29999999999382
aF184.39999999999381
aF184.4999999999938
aF184.5999999999938
aF184.69999999999379
aF184.79999999999379
aF184.89999999999378
aF184.99999999999378
aF185.09999999999377
aF185.19999999999376
aF185.29999999999376
aF185.39999999999375
aF185.49999999999375
aF185.59999999999374
aF185.69999999999374
aF185.79999999999373
aF185.89999999999372
aF185.99999999999372
aF186.09999999999371
aF186.19999999999371
aF186.2999999999937
aF186.3999999999937
aF186.49999999999369
aF186.59999999999368
aF186.69999999999368
aF186.79999999999367
aF186.89999999999367
aF186.99999999999366
aF187.09999999999366
aF187.19999999999365
aF187.29999999999364
aF187.39999999999364
aF187.49999999999363
aF187.59999999999363
aF187.69999999999362
aF187.79999999999362
aF187.89999999999361
aF187.99999999999361
aF188.0999999999936
aF188.19999999999359
aF188.29999999999359
aF188.39999999999358
aF188.49999999999358
aF188.59999999999357
aF188.69999999999357
aF188.79999999999356
aF188.89999999999355
aF188.99999999999355
aF189.09999999999354
aF189.19999999999354
aF189.29999999999353
aF189.39999999999353
aF189.49999999999352
aF189.59999999999351
aF189.69999999999351
aF189.7999999999935
aF189.8999999999935
aF189.99999999999349
aF190.09999999999349
aF190.19999999999348
aF190.29999999999347
aF190.39999999999347
aF190.49999999999346
aF190.59999999999346
aF190.69999999999345
aF190.79999999999345
aF190.89999999999344
aF190.99999999999343
aF191.09999999999343
aF191.19999999999342
aF191.29999999999342
aF191.39999999999341
aF191.49999999999341
aF191.5999999999934
aF191.69999999999339
aF191.79999999999339
aF191.89999999999338
aF191.99999999999338
aF192.09999999999337
aF192.19999999999337
aF192.29999999999336
aF192.39999999999336
aF192.49999999999335
aF192.59999999999334
aF192.69999999999334
aF192.79999999999333
aF192.89999999999333
aF192.99999999999332
aF193.09999999999332
aF193.19999999999331
aF193.2999999999933
aF193.3999999999933
aF193.49999999999329
aF193.59999999999329
aF193.69999999999328
aF193.79999999999328
aF193.89999999999327
aF193.99999999999326
aF194.09999999999326
aF194.19999999999325
aF194.29999999999325
aF194.39999999999324
aF194.49999999999324
aF194.59999999999323
aF194.69999999999322
aF194.79999999999322
aF194.89999999999321
aF194.99999999999321
aF195.0999999999932
aF195.1999999999932
aF195.29999999999319
aF195.39999999999318
aF195.49999999999318
aF195.59999999999317
aF195.69999999999317
aF195.79999999999316
aF195.89999999999316
aF195.99999999999315
aF196.09999999999314
aF196.19999999999314
aF196.29999999999313
aF196.39999999999313
aF196.49999999999312
aF196.59999999999312
aF196.69999999999311
aF196.7999999999931
aF196.8999999999931
aF196.99999999999309
aF197.09999999999309
aF197.19999999999308
aF197.29999999999308
aF197.39999999999307
aF197.49999999999307
aF197.59999999999306
aF197.69999999999305
aF197.79999999999305
aF197.89999999999304
aF197.99999999999304
aF198.09999999999303
aF198.19999999999303
aF198.29999999999302
aF198.39999999999301
aF198.49999999999301
aF198.599999999993
aF198.699999999993
aF198.79999999999299
aF198.89999999999299
aF198.99999999999298
aF199.09999999999297
aF199.19999999999297
aF199.29999999999296
aF199.39999999999296
aF199.49999999999295
aF199.59999999999295
aF199.69999999999294
aF199.79999999999293
aF199.89999999999293
aF199.99999999999292
a(lp2
I0
aF9.9083104794841218e-07
aF1.1783856155744582e-06
aF1.1783856155744582e-06
aF1.2385997312003939e-06
aF1.2764024949909675e-06
aF1.3045006731757532e-06
aF1.3250429204117762e-06
aF1.3250429204117762e-06
aF1.3390150353845862e-06
aF1.347254716138671e-06
aF1.3505202921091376e-06
aF1.3494779673530109e-06
aF1.3494779673530109e-06
aF1.3447002805866937e-06
aF1.3366753357495511e-06
aF1.3258197116302515e-06
aF1.312491034322298e-06
aF1.312491034322298e-06
aF1.2969987059288499e-06
aF1.279612533945113e-06
aF1.2605694886684008e-06
aF1.2400789635581022e-06
aF1.2400789635581022e-06
aF1.2183268842829682e-06
aF1.195478956437527e-06
aF1.1716832744878783e-06
aF1.1470724542369365e-06
aF1.1470724542369365e-06
aF1.1217654081412083e-06
aF1.095868848398615e-06
aF1.069478576987887e-06
aF1.0426806097299747e-06
aF1.0426806097299747e-06
aF1.0155521638454023e-06
aF9.8816252987957028e-07
aF9.6057385247553062e-07
aF9.328418276779586e-07
aF9.328418276779586e-07
aF9.0501632632517632e-07
aF8.771419597209524e-07
aF8.4925858659022714e-07
aF8.2140177016253572e-07
aF8.2140177016253572e-07
aF7.9360319448951713e-07
aF7.6589103745707988e-07
aF7.3829030849334543e-07
aF7.1082315668963905e-07
aF7.1082315668963905e-07
aF6.8350914535894136e-07
aF6.5636550341955817e-07
aF6.2940735284219305e-07
aF6.026479124557248e-07
aF6.026479124557248e-07
aF5.7609868475955231e-07
aF5.4976962341594658e-07
aF5.2366928525262835e-07
aF4.9780496890309927e-07
aF4.9780496890309927e-07
aF4.7218283824819548e-07
aF4.468080358137943e-07
aF4.2168478677764136e-07
aF3.9681648885390413e-07
aF3.9681648885390413e-07
aF3.7220579712162998e-07
aF3.4785470160507326e-07
aF3.2376459341153495e-07
aF2.9993632823411455e-07
aF2.9993632823411455e-07
aF2.7637028405819318e-07
aF2.5306641041221645e-07
aF2.3002427519585317e-07
aF2.0724310756032361e-07
aF2.0724310756032361e-07
aF1.8472183454260424e-07
aF1.6245911556955534e-07
aF1.4045337444113701e-07
aF1.1870282643515032e-07
aF1.1870282643515032e-07
aF9.7205504846481851e-08
aF7.5959282877830763e-08
aF5.4961895199925586e-08
aF3.4210956310418795e-08
aF3.4210956310418795e-08
aF1.3703977691444242e-08
aF-6.5616169531520005e-09
aF-2.658847681050921e-08
aF-4.6379313590483494e-08
aF-4.6379313590483494e-08
aF-6.5936888846976018e-08
aF-8.5264003316713692e-08
aF-1.0436349009921413e-07
aF-1.2323820459477016e-07
aF-1.2323820459477016e-07
aF-1.4189101718801595e-07
aF-1.6032480752192991e-07
aF-1.785424583621243e-07
aF-1.9654684936443339e-07
aF-1.9654684936443339e-07
aF-2.1434085403446474e-07
aF-2.3192733511980699e-07
aF-2.4930913969828131e-07
aF-2.6648909767489616e-07
aF-2.6648909767489616e-07
aF-2.8347001778357185e-07
aF-3.0025468503543785e-07
aF-3.1684585913345099e-07
aF-3.3324627189120177e-07
aF-3.3324627189120177e-07
aF-3.4945862642495585e-07
aF-3.6548559458796345e-07
aF-3.8132981651346693e-07
aF-3.9699389941896051e-07
aF-3.9699389941896051e-07
aF-4.1248041735780416e-07
aF-4.2779190863558963e-07
aF-4.4293087766761206e-07
aF-4.5789979364789384e-07
aF-4.5789979364789384e-07
aF-4.7270108889599534e-07
aF-4.8733716041721126e-07
aF-5.0181036937373807e-07
aF-5.1612303967922964e-07
aF-5.1612303967922964e-07
aF-5.3027745989347227e-07
aF-5.4427588286976624e-07
aF-5.5812052523658448e-07
aF-5.7181356808394706e-07
aF-5.7181356808394706e-07
aF-5.8535715755035908e-07
aF-5.9875340365222198e-07
aF-6.1200438260277431e-07
aF-6.2511213604130412e-07
aF-6.2511213604130412e-07
aF-6.3807867085348543e-07
aF-6.5090596175756955e-07
aF-6.6359594943290235e-07
aF-6.7615054160810203e-07
aF-6.7615054160810203e-07
aF-6.8857161436820491e-07
aF-7.00861012204306e-07
aF-7.1302054717271731e-07
aF-7.2505200181661695e-07
aF-7.2505200181661695e-07
aF-7.3695712871815457e-07
aF-7.4873764914780599e-07
aF-7.6039525604916518e-07
aF-7.7193161382654934e-07
aF-7.7193161382654934e-07
aF-7.833483575965426e-07
aF-7.9464709529217833e-07
aF-8.0582940817012226e-07
aF-8.1689685031497542e-07
aF-8.1689685031497542e-07
aF-8.2785094927176586e-07
aF-8.3869320753221668e-07
aF-8.4942510187955421e-07
aF-8.6004808384797523e-07
aF-8.6004808384797523e-07
aF-8.7056358162377211e-07
aF-8.8097299897139284e-07
aF-8.9127771620067957e-07
aF-9.0147909144408056e-07
aF-9.0147909144408056e-07
aF-9.1157845969615349e-07
aF-9.2157713412163166e-07
aF-9.3147640637675026e-07
aF-9.4127754721270497e-07
aF-9.4127754721270497e-07
aF-9.5098180583948572e-07
aF-9.6059041200027519e-07
aF-9.7010457598836993e-07
aF-9.7952548693898242e-07
aF-9.7952548693898242e-07
aF-9.888543161859564e-07
aF-9.9809221649530882e-07
aF-1.0072403208226589e-06
aF-1.0162997452966345e-06
aF-1.0162997452966345e-06
aF-1.02527158874169e-06
aF-1.0341569323497742e-06
aF-1.0429568400596219e-06
aF-1.0516723596949181e-06
aF-1.0516723596949181e-06
aF-1.0603045232710364e-06
aF-1.068854345463144e-06
aF-1.0773228265201634e-06
aF-1.0857109514456122e-06
aF-1.0857109514456122e-06
aF-1.0940196893174476e-06
aF-1.1022499954767635e-06
aF-1.1104028109533849e-06
aF-1.1184790620198725e-06
aF-1.1184790620198725e-06
aF-1.1264796615724792e-06
aF-1.1344055088379034e-06
aF-1.1422574896999593e-06
aF-1.1500364771217543e-06
aF-1.1500364771217543e-06
aF-1.1577433313694714e-06
aF-1.1653789006944698e-06
aF-1.1729440196533931e-06
aF-1.1804395122745385e-06
aF-1.1804395122745385e-06
aF-1.1878661900470343e-06
aF-1.1952248522235942e-06
aF-1.2025162882317352e-06
aF-1.2097412757848545e-06
aF-1.2097412757848545e-06
aF-1.216900581447078e-06
aF-1.2239949607996397e-06
aF-1.2310251597393503e-06
aF-1.2379919134217557e-06
aF-1.2379919134217557e-06
aF-1.244895946624253e-06
aF-1.2517379743733962e-06
aF-1.2585187022523976e-06
aF-1.2652388255058607e-06
aF-1.2652388255058607e-06
aF-1.2718990311260853e-06
aF-1.2784999965363524e-06
aF-1.2850423888630774e-06
aF-1.2915268683794764e-06
aF-1.2915268683794764e-06
aF-1.2979540852350596e-06
aF-1.3043246813719176e-06
aF-1.3106392903039195e-06
aF-1.3168985375253243e-06
aF-1.3168985375253243e-06
aF-1.3231030405838049e-06
aF-1.3292534077552933e-06
aF-1.335350240908193e-06
aF-1.3413941340014007e-06
aF-1.3413941340014007e-06
aF-1.3473856724985176e-06
aF-1.3533254350657648e-06
aF-1.3592139937907754e-06
aF-1.365051912815274e-06
aF-1.365051912815274e-06
aF-1.3708397485176579e-06
aF-1.3765780521720149e-06
aF-1.382267366811031e-06
aF-1.3879082289169033e-06
aF-1.3879082289169033e-06
aF-1.3935011684038055e-06
aF-1.3990467090678302e-06
aF-1.4045453682752655e-06
aF-1.4099976566279756e-06
aF-1.4099976566279756e-06
aF-1.4154040789688496e-06
aF-1.4207651349235206e-06
aF-1.4260813160829455e-06
aF-1.4313531098239104e-06
aF-1.4313531098239104e-06
aF-1.4365809971039628e-06
aF-1.4417654532728723e-06
aF-1.4469069479931042e-06
aF-1.4520059460908794e-06
aF-1.4520059460908794e-06
aF-1.4570629059626587e-06
aF-1.4620782810217106e-06
aF-1.4670525195947134e-06
aF-1.4719860647972694e-06
aF-1.4719860647972694e-06
aF-1.4768793544941487e-06
aF-1.4817328209161286e-06
aF-1.4865468928129455e-06
aF-1.4913219935040554e-06
aF-1.4913219935040554e-06
aF-1.4960585401675202e-06
aF-1.5007569468895305e-06
aF-1.5054176229035478e-06
aF-1.510040972178528e-06
aF-1.510040972178528e-06
aF-1.5146273935844163e-06
aF-1.5191772827359774e-06
aF-1.523691030928693e-06
aF-1.5281690241626453e-06
aF-1.5281690241626453e-06
aF-1.5326116442863052e-06
aF-1.5370192698422233e-06
aF-1.5413922749142106e-06
aF-1.5457310281289555e-06
aF-1.5457310281289555e-06
aF-1.5500358953333577e-06
aF-1.5543072387323264e-06
aF-1.5585454152589364e-06
aF-1.5627507786407828e-06
aF-1.5627507786407828e-06
aF-1.5669236791154716e-06
aF-1.571064462952537e-06
aF-1.5751734720400819e-06
aF-1.5792510448513009e-06
aF-1.5792510448513009e-06
aF-1.5832975169348661e-06
aF-1.5873132194324201e-06
aF-1.5912984797185942e-06
aF-1.595253622161333e-06
aF-1.595253622161333e-06
aF-1.5991789685285799e-06
aF-1.6030748356977057e-06
aF-1.6069415370700298e-06
aF-1.6107793840507278e-06
aF-1.6107793840507278e-06
aF-1.6145886843344789e-06
aF-1.618369741306731e-06
aF-1.6221228553631744e-06
aF-1.6258483246682388e-06
aF-1.6258483246682388e-06
aF-1.6295464438586234e-06
aF-1.6332175041040629e-06
aF-1.6368617938130203e-06
aF-1.6404795984216804e-06
aF-1.6404795984216804e-06
aF-1.6440712001338181e-06
aF-1.6476368781145109e-06
aF-1.6511769079814731e-06
aF-1.6546915639817745e-06
aF-1.6546915639817745e-06
aF-1.6581811167952161e-06
aF-1.6616458330031561e-06
aF-1.6650859783136903e-06
aF-1.6685018144076048e-06
aF-1.6685018144076048e-06
aF-1.671893600057733e-06
aF-1.675261592261987e-06
aF-1.6786060449564874e-06
aF-1.6819272092996977e-06
aF-1.6819272092996977e-06
aF-1.6852253333515488e-06
aF-1.6885006628144405e-06
aF-1.6917534415247681e-06
aF-1.6949839104464835e-06
aF-1.6949839104464835e-06
aF-1.6981923067412148e-06
aF-1.7013788664281795e-06
aF-1.7045438225887352e-06
aF-1.7076874057113327e-06
aF-1.7076874057113327e-06
aF-1.7108098432301548e-06
aF-1.7139113611127926e-06
aF-1.716992183540818e-06
aF-1.7200525308044926e-06
aF-1.7200525308044926e-06
aF-1.7230926210897195e-06
aF-1.7261126712118201e-06
aF-1.7291128946126645e-06
aF-1.7320935031740495e-06
aF-1.7320935031740495e-06
aF-1.7350547057685067e-06
aF-1.7379967094384642e-06
aF-1.7409197194626915e-06
aF-1.7438239381358496e-06
aF-1.7438239381358496e-06
aF-1.7467095656004883e-06
aF-1.7495768003153199e-06
aF-1.7524258381991653e-06
aF-1.7552568732001523e-06
aF-1.7552568732001523e-06
aF-1.7580700967678177e-06
aF-1.760865698624773e-06
aF-1.7636438663039697e-06
aF-1.7664047846564526e-06
aF-1.7664047846564526e-06
aF-1.7691486373452183e-06
aF-1.7718756056651519e-06
aF-1.7745858692140175e-06
aF-1.777279604796113e-06
aF-1.777279604796113e-06
aF-1.7799569877665064e-06
aF-1.7826181914558334e-06
aF-1.7852633876971964e-06
aF-1.7878927455427449e-06
aF-1.7878927455427449e-06
aF-1.790506431791212e-06
aF-1.793104612726486e-06
aF-1.7956874522597105e-06
aF-1.798255111264267e-06
aF-1.798255111264267e-06
aF-1.800807749247438e-06
aF-1.8033455251503945e-06
aF-1.8058685951452058e-06
aF-1.8083771136880961e-06
aF-1.8083771136880961e-06
aF-1.810871232570962e-06
aF-1.8133511029746882e-06
aF-1.8158168737464172e-06
aF-1.8182686918182292e-06
aF-1.8182686918182292e-06
aF-1.8207067022990612e-06
aF-1.8231310498664656e-06
aF-1.8255418759958125e-06
aF-1.827939321743957e-06
aF-1.827939321743957e-06
aF-1.8303235244281519e-06
aF-1.8326946210323159e-06
aF-1.8350527471773931e-06
aF-1.8373980365835155e-06
aF-1.8373980365835155e-06
aF-1.8397306196826329e-06
aF-1.8420506273616135e-06
aF-1.8443581888759719e-06
aF-1.8466534316498773e-06
aF-1.8466534316498773e-06
aF-1.8489364803219386e-06
aF-1.8512074586516465e-06
aF-1.8534664889281053e-06
aF-1.8557136922934753e-06
aF-1.8557136922934753e-06
aF-1.8579491873895655e-06
aF-1.8601730917372366e-06
aF-1.8623855218018133e-06
aF-1.8645865923238912e-06
aF-1.8645865923238912e-06
aF-1.8667764168955731e-06
aF-1.8689551056743017e-06
aF-1.8711227696530803e-06
aF-1.8732795185234362e-06
aF-1.8732795185234362e-06
aF-1.8754254596819848e-06
aF-1.8775606975115419e-06
aF-1.8796853368633169e-06
aF-1.8817994812910516e-06
aF-1.8817994812910516e-06
aF-1.8839032332450073e-06
aF-1.8859966922288066e-06
aF-1.8880799569226744e-06
aF-1.8901531249949003e-06
aF-1.8901531249949003e-06
aF-1.8922162938873483e-06
aF-1.8942695587377658e-06
aF-1.8963130123881865e-06
aF-1.8983467471805823e-06
aF-1.8983467471805823e-06
aF-1.9003708546732165e-06
aF-1.9023854252458794e-06
aF-1.9043905465476578e-06
aF-1.9063863061431788e-06
aF-1.9063863061431788e-06
aF-1.9083727912684365e-06
aF-1.9103500868029884e-06
aF-1.9123182763477283e-06
aF-1.9142774424598586e-06
aF-1.9142774424598586e-06
aF-1.9162276658680625e-06
aF-1.9181690282213882e-06
aF-1.9201016084147484e-06
aF-1.9220254837427621e-06
aF-1.9220254837427621e-06
aF-1.9239407309388687e-06
aF-1.9258474270164511e-06
aF-1.9277456466749599e-06
aF-1.9296354628787042e-06
aF-1.9296354628787042e-06
aF-1.9315169491010989e-06
aF-1.933390175779095e-06
aF-1.935255214488139e-06
aF-1.9371121356488884e-06
aF-1.9371121356488884e-06
aF-1.9389610068136554e-06
aF-1.9408018944772654e-06
aF-1.9426348667272014e-06
aF-1.9444599888636618e-06
aF-1.9444599888636618e-06
aF-1.9462773255435293e-06
aF-1.9480869402427881e-06
aF-1.9498888962737764e-06
aF-1.9516832556186426e-06
aF-1.9516832556186426e-06
aF-1.9534700790394908e-06
aF-1.9552489487132738e-06
aF-1.9570190470944156e-06
aF-1.9587802124066283e-06
aF-1.9587802124066283e-06
aF-1.9605324711436431e-06
aF-1.9622759125640224e-06
aF-1.9640106454300366e-06
aF-1.9657367830237951e-06
aF-1.9657367830237951e-06
aF-1.967454436523397e-06
aF-1.9691637128189163e-06
aF-1.9708647156954577e-06
aF-1.9725575434367114e-06
aF-1.9725575434367114e-06
aF-1.9742422910824094e-06
aF-1.9759190500131585e-06
aF-1.9775879076996655e-06
aF-1.9792489481859362e-06
aF-1.9792489481859362e-06
aF-1.9809022548665603e-06
aF-1.9825479082312317e-06
aF-1.9841859860699024e-06
aF-1.9858165636693358e-06
aF-1.9858165636693358e-06
aF-1.9874397168291935e-06
aF-1.9890555178680305e-06
aF-1.9906640388739873e-06
aF-1.9922653507579774e-06
aF-1.9922653507579774e-06
aF-1.9938595209441756e-06
aF-1.9954466181876613e-06
aF-1.9970267097282043e-06
aF-1.9985998615619594e-06
aF-1.9985998615619594e-06
aF-2.0001658833681222e-06
aF-2.001723724357137e-06
aF-2.0032726405327937e-06
aF-2.0048124136141949e-06
aF-2.0048124136141949e-06
aF-2.0063430685892852e-06
aF-2.0078647206614106e-06
aF-2.0093775141322838e-06
aF-2.0108816000827329e-06
aF-2.0108816000827329e-06
aF-2.012377127872179e-06
aF-2.0138642401822542e-06
aF-2.0153430728128598e-06
aF-2.016813756594373e-06
aF-2.016813756594373e-06
aF-2.0182764157399836e-06
aF-2.0197311690844126e-06
aF-2.0211781300436128e-06
aF-2.0226174089482961e-06
aF-2.0226174089482961e-06
aF-2.024049110835914e-06
aF-2.02547333841467e-06
aF-2.0268901921873726e-06
aF-2.0282997698881081e-06
aF-2.0282997698881081e-06
aF-2.0297021657537356e-06
aF-2.0310974719642311e-06
aF-2.032485780152538e-06
aF-2.0338671798551566e-06
aF-2.0338671798551566e-06
aF-2.0352417586118573e-06
aF-2.0366096027882158e-06
aF-2.0379707961215172e-06
aF-2.0393254223639292e-06
aF-2.0393254223639292e-06
aF-2.0406735640967846e-06
aF-2.0420153023735656e-06
aF-2.0433507159913558e-06
aF-2.0446798831680518e-06
aF-2.0446798831680518e-06
aF-2.0460028809544565e-06
aF-2.0473197859110301e-06
aF-2.0486306733601757e-06
aF-2.0499356176578727e-06
aF-2.0499356176578727e-06
aF-2.0512346918640843e-06
aF-2.0525279671903568e-06
aF-2.0538155154097503e-06
aF-2.055097407537968e-06
aF-2.055097407537968e-06
aF-2.056373712530453e-06
aF-2.0576444975640019e-06
aF-2.0589098296962283e-06
aF-2.060169776757534e-06
aF-2.060169776757534e-06
aF-2.0614244043079942e-06
aF-2.0626737772044401e-06
aF-2.0639179585799732e-06
aF-2.0651570112212752e-06
aF-2.0651570112212752e-06
aF-2.0663909986512883e-06
aF-2.0676199817954464e-06
aF-2.068844021547068e-06
aF-2.0700631771150199e-06
aF-2.0700631771150199e-06
aF-2.0712775076315281e-06
aF-2.0724870712145897e-06
aF-2.0736919249458979e-06
aF-2.0748921257790399e-06
aF-2.0748921257790399e-06
aF-2.0760877294549107e-06
aF-2.0772787913662086e-06
aF-2.0784653656168002e-06
aF-2.0796475062983052e-06
aF-2.0796475062983052e-06
aF-2.0808252668335092e-06
aF-2.0819986990117782e-06
aF-2.083167853205812e-06
aF-2.0843327811991348e-06
aF-2.0843327811991348e-06
aF-2.0854935336615403e-06
aF-2.0866501605681574e-06
aF-2.0878027100660792e-06
aF-2.0889512295949092e-06
aF-2.0889512295949092e-06
aF-2.0900957667174384e-06
aF-2.0912363684204064e-06
aF-2.0923730821482918e-06
aF-2.0935059533848797e-06
aF-2.0935059533848797e-06
aF-2.0946350274217338e-06
aF-2.0957603484526528e-06
aF-2.0968819602130953e-06
aF-2.0979999061498909e-06
aF-2.0979999061498909e-06
aF-2.0991142294412972e-06
aF-2.1002249723441336e-06
aF-2.1013321762509305e-06
aF-2.1024358808036544e-06
aF-2.1024358808036544e-06
aF-2.1035361266232759e-06
aF-2.1046329533834969e-06
aF-2.1057264017396626e-06
aF-2.1068165096631734e-06
aF-2.1068165096631734e-06
aF-2.1079033142556004e-06
aF-2.108986854251388e-06
aF-2.1100671658600566e-06
aF-2.1111442871008662e-06
aF-2.1111442871008662e-06
aF-2.1122182533513259e-06
aF-2.1132890995248997e-06
aF-2.1143568604673574e-06
aF-2.1154215719479253e-06
aF-2.1154215719479253e-06
aF-2.1164832686126041e-06
aF-2.11754198416947e-06
aF-2.1185977504589335e-06
aF-2.1196506001609504e-06
aF-2.1196506001609504e-06
aF-2.1207005666904945e-06
aF-2.1217476815514163e-06
aF-2.1227919758612403e-06
aF-2.1238334807031193e-06
aF-2.1238334807031193e-06
aF-2.124872225970799e-06
aF-2.1259082416102843e-06
aF-2.126941556871756e-06
aF-2.1279722024132186e-06
aF-2.1279722024132186e-06
aF-2.1290002074358055e-06
aF-2.1300255998956193e-06
aF-2.1310484064652066e-06
aF-2.1320686551422967e-06
aF-2.1320686551422967e-06
aF-2.1330863743921295e-06
aF-2.1341015901891294e-06
aF-2.1351143281087963e-06
aF-2.1361246146318162e-06
aF-2.1361246146318162e-06
aF-2.137132476281571e-06
aF-2.1381379373296561e-06
aF-2.1391410226469857e-06
aF-2.1401417574237933e-06
aF-2.1401417574237933e-06
aF-2.1411401659677077e-06
aF-2.1421362706499075e-06
aF-2.143130094063843e-06
aF-2.1441216618626438e-06
aF-2.1441216618626438e-06
aF-2.1451109954762851e-06
aF-2.1460981165357797e-06
aF-2.1470830488206831e-06
aF-2.1480658137258748e-06
aF-2.1480658137258748e-06
aF-2.1490464316082405e-06
aF-2.1500249230936963e-06
aF-2.151001309762138e-06
aF-2.1519756128042404e-06
aF-2.1519756128042404e-06
aF-2.1529478516850877e-06
aF-2.1539180459650775e-06
aF-2.1548862145372604e-06
aF-2.1558523772933359e-06
aF-2.1558523772933359e-06
aF-2.1568165540409273e-06
aF-2.1577787631465757e-06
aF-2.1587390214407885e-06
aF-2.1596973474233437e-06
aF-2.1596973474233437e-06
aF-2.1606537606044778e-06
aF-2.1616082771552781e-06
aF-2.1625609144832286e-06
aF-2.1635116899137275e-06
aF-2.1635116899137275e-06
aF-2.1644606189552328e-06
aF-2.1654077184225762e-06
aF-2.1663530048108387e-06
aF-2.1672964940605656e-06
aF-2.1672964940605656e-06
aF-2.168238201018167e-06
aF-2.1691781431992475e-06
aF-2.1701163345552953e-06
aF-2.1710527880746343e-06
aF-2.1710527880746343e-06
aF-2.1719875198815926e-06
aF-2.1729205456730967e-06
aF-2.1738518790283909e-06
aF-2.1747815338127782e-06
aF-2.1747815338127782e-06
aF-2.1757095240350549e-06
aF-2.1766358625113054e-06
aF-2.177560561831368e-06
aF-2.1784836367204226e-06
aF-2.1784836367204226e-06
aF-2.1794050999901767e-06
aF-2.1803249631846131e-06
aF-2.1812432408230248e-06
aF-2.1821599422308214e-06
aF-2.1821599422308214e-06
aF-2.1830750794436926e-06
aF-2.1839886677533573e-06
aF-2.1849007161557703e-06
aF-2.185811236017941e-06
aF-2.185811236017941e-06
aF-2.186720239835565e-06
aF-2.1876277380161267e-06
aF-2.1885337415972533e-06
aF-2.1894382618649544e-06
aF-2.1894382618649544e-06
aF-2.1903413075848043e-06
aF-2.191242890828675e-06
aF-2.1921430218869683e-06
aF-2.1930417088228596e-06
aF-2.1930417088228596e-06
aF-2.1939389629703249e-06
aF-2.1948347936450656e-06
aF-2.1957292106239972e-06
aF-2.1966222237460748e-06
aF-2.1966222237460748e-06
aF-2.1975138412261212e-06
aF-2.1984040722441356e-06
aF-2.1992929251907805e-06
aF-2.2001804085438466e-06
aF-2.2001804085438466e-06
aF-2.2010665332934393e-06
aF-2.2019513050436388e-06
aF-2.2028347335942211e-06
aF-2.2037168281804352e-06
aF-2.2037168281804352e-06
aF-2.2045975932651498e-06
aF-2.2054770382824815e-06
aF-2.2063551718165964e-06
aF-2.2072320007442178e-06
aF-2.2072320007442178e-06
aF-2.2081075343685179e-06
aF-2.2089817781991139e-06
aF-2.209854738708301e-06
aF-2.2107264237268984e-06
aF-2.2107264237268984e-06
aF-2.2115968395494629e-06
aF-2.2124659943789724e-06
aF-2.2133338942207736e-06
aF-2.2142005456324847e-06
aF-2.2142005456324847e-06
aF-2.2150659551797701e-06
aF-2.2159301286494903e-06
aF-2.2167930722190766e-06
aF-2.2176547918264039e-06
aF-2.2176547918264039e-06
aF-2.2185152929804775e-06
aF-2.2193745823460166e-06
aF-2.2202326663911641e-06
aF-2.2210895493483164e-06
aF-2.2210895493483164e-06
aF-2.2219452368208495e-06
aF-2.2227997343590236e-06
aF-2.2236530473335527e-06
aF-2.2245051807188059e-06
aF-2.2245051807188059e-06
aF-2.2253561406672837e-06
aF-2.2262059325067306e-06
aF-2.2270545597057553e-06
aF-2.2279020278348803e-06
aF-2.2279020278348803e-06
aF-2.2287483408106202e-06
aF-2.2295935044895028e-06
aF-2.2304375229407896e-06
aF-2.2312804011674593e-06
aF-2.2312804011674593e-06
aF-2.2321221432756251e-06
aF-2.2329627524863583e-06
aF-2.23380223438337e-06
aF-2.2346405924839811e-06
aF-2.2346405924839811e-06
aF-2.2354778320980759e-06
aF-2.236313955454924e-06
aF-2.2371489694979599e-06
aF-2.2379828759332429e-06
aF-2.2379828759332429e-06
aF-2.2388156787718613e-06
aF-2.2396473832154311e-06
aF-2.240477989142632e-06
aF-2.2413075042551731e-06
aF-2.2413075042551731e-06
aF-2.2421359299807954e-06
aF-2.2429632709605603e-06
aF-2.2437895311717663e-06
aF-2.2446147124014458e-06
aF-2.2446147124014458e-06
aF-2.2454388173089339e-06
aF-2.2462618512524359e-06
aF-2.247083606285944e-06
aF-2.2479037996586198e-06
aF-2.2479037996586198e-06
aF-2.2487219673871164e-06
aF-2.2495380378742422e-06
aF-2.250352030367727e-06
aF-2.2511639819580995e-06
aF-2.2511639819580995e-06
aF-2.2519739322526759e-06
aF-2.2527819207066109e-06
aF-2.2535879840552354e-06
aF-2.2543921551575189e-06
aF-2.2543921551575189e-06
aF-2.255194465865047e-06
aF-2.2559949435283801e-06
aF-2.2567936161864009e-06
aF-2.2575905078632314e-06
aF-2.2575905078632314e-06
aF-2.2583856429776027e-06
aF-2.2591790430836841e-06
aF-2.2599707289954002e-06
aF-2.2607607225605571e-06
aF-2.2607607225605571e-06
aF-2.2615490412102486e-06
aF-2.2623357040031123e-06
aF-2.2631207283832771e-06
aF-2.2639041311658638e-06
aF-2.2639041311658638e-06
aF-2.2646859301587324e-06
aF-2.265466141173156e-06
aF-2.2662447806570517e-06
aF-2.2670218632457745e-06
aF-2.2670218632457745e-06
aF-2.2677974029446825e-06
aF-2.2685714143277272e-06
aF-2.269343913747532e-06
aF-2.2701149135844518e-06
aF-2.2701149135844518e-06
aF-2.2708844283505696e-06
aF-2.2716524709182984e-06
aF-2.2724190558140692e-06
aF-2.2731841931147232e-06
aF-2.2731841931147232e-06
aF-2.2739478978131448e-06
aF-2.274710182314028e-06
aF-2.2754710594656367e-06
aF-2.2762305410496015e-06
aF-2.2762305410496015e-06
aF-2.2769886390054269e-06
aF-2.277745364509337e-06
aF-2.2785007287038915e-06
aF-2.2792547435590987e-06
aF-2.2792547435590987e-06
aF-2.2800074201434704e-06
aF-2.2807587702720894e-06
aF-2.2815088036332812e-06
aF-2.2822575301451421e-06
aF-2.2822575301451421e-06
aF-2.2830049614912441e-06
aF-2.2837511065081663e-06
aF-2.2844959755121566e-06
aF-2.2852395786970399e-06
aF-2.2852395786970399e-06
aF-2.285981926217898e-06
aF-2.2867230264368284e-06
aF-2.2874628901650092e-06
aF-2.2882015269557405e-06
aF-2.2882015269557405e-06
aF-2.2889389454270939e-06
aF-2.2896751535956969e-06
aF-2.2904101609884101e-06
aF-2.2911439749219785e-06
aF-2.2911439749219785e-06
aF-2.2918766059872289e-06
aF-2.2926080616942166e-06
aF-2.2933383515428308e-06
aF-2.2940674813048449e-06
aF-2.2940674813048449e-06
aF-2.2947954606131168e-06
aF-2.2955222949491538e-06
aF-2.2962479942340932e-06
aF-2.2969725644715977e-06
aF-2.2969725644715977e-06
aF-2.2976960152522884e-06
aF-2.2984183525211781e-06
aF-2.2991395849610814e-06
aF-2.2998597184749737e-06
aF-2.2998597184749737e-06
aF-2.3005787598577688e-06
aF-2.3012967166270875e-06
aF-2.302013595474668e-06
aF-2.3027294028465223e-06
aF-2.3027294028465223e-06
aF-2.3034441462557765e-06
aF-2.3041578323710638e-06
aF-2.3048704659905365e-06
aF-2.3055820544169451e-06
aF-2.3055820544169451e-06
aF-2.3062926031268265e-06
aF-2.3070021192335378e-06
aF-2.3077106074474358e-06
aF-2.3084180751970146e-06
aF-2.3084180751970146e-06
aF-2.3091245274503172e-06
aF-2.3098299694442545e-06
aF-2.3105344062661723e-06
aF-2.3112378452430137e-06
aF-2.3112378452430137e-06
aF-2.3119402900165913e-06
aF-2.3126417463498942e-06
aF-2.313342218650149e-06
aF-2.3140417135182747e-06
aF-2.3140417135182747e-06
aF-2.314740236663787e-06
aF-2.3154377929733664e-06
aF-2.31613438744421e-06
aF-2.3168300238233285e-06
aF-2.3168300238233285e-06
aF-2.317524706958781e-06
aF-2.318218440487692e-06
aF-2.3189112296931134e-06
aF-2.3196030811354701e-06
aF-2.3196030811354701e-06
aF-2.3202939984851327e-06
aF-2.3209839863433944e-06
aF-2.3216730469116802e-06
aF-2.3223611871654631e-06
aF-2.3223611871654631e-06
aF-2.3230484089983036e-06
aF-2.323734716785161e-06
aF-2.3244201151227604e-06
aF-2.3251046080820743e-06
aF-2.3251046080820743e-06
aF-2.3257882004421557e-06
aF-2.3264708947272838e-06
aF-2.3271526970437537e-06
aF-2.3278336095459956e-06
aF-2.3278336095459956e-06
aF-2.3285136358742907e-06
aF-2.3291927784905752e-06
aF-2.3298710413093862e-06
aF-2.3305484282260946e-06
aF-2.3305484282260946e-06
aF-2.3312249439213205e-06
aF-2.331900590741736e-06
aF-2.3325753732886585e-06
aF-2.3332492929897868e-06
aF-2.3332492929897868e-06
aF-2.3339223552176609e-06
aF-2.3345945609459294e-06
aF-2.3352659143594352e-06
aF-2.3359364183580448e-06
aF-2.3359364183580448e-06
aF-2.3366060748076764e-06
aF-2.3372748881315358e-06
aF-2.33794286040456e-06
aF-2.3386099977298418e-06
aF-2.3386099977298418e-06
aF-2.3392763012861028e-06
aF-2.3399417726751007e-06
aF-2.3406064153532718e-06
aF-2.3412702308020959e-06
aF-2.3412702308020959e-06
aF-2.3419332228421845e-06
aF-2.3425953942260662e-06
aF-2.3432567486260186e-06
aF-2.3439172886941983e-06
aF-2.3439172886941983e-06
aF-2.3445770151022954e-06
aF-2.3452359310065874e-06
aF-2.345894039102499e-06
aF-2.346551342097189e-06
aF-2.346551342097189e-06
aF-2.3472078419356717e-06
aF-2.3478632700714273e-06
aF-2.3485175216254042e-06
aF-2.3491705956970929e-06
aF-2.3491705956970929e-06
aF-2.3498225034279964e-06
aF-2.3504732618505203e-06
aF-2.3511228859319113e-06
aF-2.3517713906809711e-06
aF-2.3517713906809711e-06
aF-2.3524187912587184e-06
aF-2.3530650986438977e-06
aF-2.3537103265250715e-06
aF-2.3543544858804465e-06
aF-2.3543544858804465e-06
aF-2.3549975880688702e-06
aF-2.3556396422577296e-06
aF-2.3562806565859206e-06
aF-2.3569206398116975e-06
aF-2.3569206398116975e-06
aF-2.3575596001391816e-06
aF-2.3581975459404493e-06
aF-2.3588344838576569e-06
aF-2.3594704228590139e-06
aF-2.3594704228590139e-06
aF-2.3601053698526996e-06
aF-2.3607393319085391e-06
aF-2.3613723143789411e-06
aF-2.3620043243024039e-06
aF-2.3620043243024039e-06
aF-2.3626353691983556e-06
aF-2.3632654535444917e-06
aF-2.3638945834186612e-06
aF-2.2863043818575596e-06
aF-2.2863043818575596e-06
aF-2.1424551903817778e-06
aF-1.9557903042351731e-06
aF-1.7390165054105264e-06
aF-1.5008043418586088e-06
aF-1.5008043418586088e-06
aF-1.2474706861839392e-06
aF-9.837038043434467e-07
aF-7.1301188597178334e-07
aF-4.3803346455227515e-07
aF-4.3803346455227515e-07
aF-1.6075968963019675e-07
aF1.1730416480221198e-07
aF3.9501998251183203e-07
aF6.7152888604604282e-07
aF6.7152888604604282e-07
aF9.4618658365812816e-07
aF1.2185147011019992e-06
aF1.4881636501583359e-06
aF1.7548843847503819e-06
aF1.7548843847503819e-06
aF2.01850685753464e-06
aF2.2789236252907398e-06
aF2.5360769745957728e-06
aF2.789948975271367e-06
aF2.789948975271367e-06
aF3.0405550167355287e-06
aF3.2879391982057913e-06
aF3.5321711158528582e-06
aF3.7733444327027648e-06
aF3.7733444327027648e-06
aF4.0115772088285034e-06
aF4.247014735939755e-06
aF4.4798350260365017e-06
aF4.7102596598659547e-06
aF4.7102596598659547e-06
aF4.9385723763706025e-06
aF5.1651480833678426e-06
aF5.390501271082005e-06
aF5.6153684379985843e-06
aF5.6153684379985843e-06
aF5.8408732020953389e-06
aF6.0687691610765342e-06
aF6.3019764062496301e-06
aF6.5457418113263787e-06
aF6.5457418113263787e-06
aF6.8102120254765817e-06
aF7.1166857521582994e-06
aF7.5160008265528846e-06
aF8.1527643630397162e-06
aF8.1527643630397162e-06
aF9.5544790305967958e-06
aF1.4296193714140689e-05
aF2.4518466323789606e-05
aF-1.8992523256687335e-05
aF-1.8992523256687335e-05
aF-1.4724464188173513e-06
aF2.240078824148059e-05
aF1.6127949322008636e-06
aF-3.2870893302042122e-05
aF-3.2870893302042122e-05
aF-1.2190129246783364e-05
aF2.4364688990060831e-05
aF2.7387888451697998e-05
aF2.8168706592933224e-05
aF2.8168706592933224e-05
aF2.8957466200066826e-05
aF2.9804826825485968e-05
aF3.1022950663523775e-05
aF3.3081226483216103e-05
aF3.3081226483216103e-05
aF3.4914854630291332e-05
aF3.4857451043671977e-05
aF3.6523689966538123e-05
aF3.9171836348651109e-05
aF3.9171836348651109e-05
aF3.7798651245321565e-05
aF2.9739972690775491e-05
aF2.5041445767384213e-05
aF2.3815938413183099e-05
aF2.3815938413183099e-05
aF2.3650529176057783e-05
aF2.3742051813476243e-05
aF2.3891791310344275e-05
aF2.4053319080987084e-05
aF2.4053319080987084e-05
aF2.4217050284107734e-05
aF2.4382580298506047e-05
aF2.4551749898195131e-05
aF2.4727236346356574e-05
aF2.4727236346356574e-05
aF2.4911808120190522e-05
aF2.5108497912302545e-05
aF2.5320734317877072e-05
aF2.5552353574859104e-05
aF2.5552353574859104e-05
aF2.5807729741674987e-05
aF2.6091943584973182e-05
aF2.6411110972298349e-05
aF2.6772631716109524e-05
aF2.6772631716109524e-05
aF2.7186001711116505e-05
aF2.7663279846871482e-05
aF2.8220470899574736e-05
aF2.8879321507594723e-05
aF2.8879321507594723e-05
aF2.9670432375421876e-05
aF3.0638602211320931e-05
aF3.1852281042600399e-05
aF3.3422224760360923e-05
aF3.3422224760360923e-05
aF3.5540614412113325e-05
aF3.8572173318073044e-05
aF4.3298521528033654e-05
aF5.1697036023037841e-05
aF5.1697036023037841e-05
aF6.9926477930035399e-05
aF0.00012009213674794461
aF0.00020601488706322894
aF0.00013224906414465001
aF0.00013224906414465001
aF9.3819901975082139e-05
aF9.1914826212645867e-05
aF9.6944072204090213e-05
aF0.00011759821170012147
aF0.00011759821170012147
aF7.208889244727101e-05
aF-0.00010283334760996433
aF-0.00036403488986590211
aF-0.00047048176342433381
aF-0.00047048176342433381
aF-0.00031361909408195567
aF-0.00019888003581455341
aF-0.00014553694880191996
aF-0.00018646442112614007
aF-0.00018646442112614007
aF-0.00026831357730594226
aF-0.00020196630661757617
aF-0.0001478419564169952
aF-7.1397903108487618e-05
aF-7.1397903108487618e-05
aF-4.4575915432987856e-07
aF2.3284024928999406e-05
aF3.9167708087777607e-05
aF5.1563315613029879e-05
aF5.1563315613029879e-05
aF6.2583425580655766e-05
aF7.3089905855942155e-05
aF8.2791967806261049e-05
aF9.0498498285977014e-05
aF9.0498498285977014e-05
aF9.3595148793054837e-05
aF9.1401902771333289e-05
aF8.6907162944613274e-05
aF8.2394321442986945e-05
aF8.2394321442986945e-05
aF7.7365584770866457e-05
aF6.9024635229627222e-05
aF5.7108807256310446e-05
aF4.3793345416551785e-05
aF4.3793345416551785e-05
aF3.1719321360079957e-05
aF2.2691664189877749e-05
aF1.6424200198103989e-05
aF1.2168648637380563e-05
aF1.2168648637380563e-05
aF9.2699888700466104e-06
aF7.2712326423512472e-06
aF5.872311610793625e-06
aF4.8794331552288678e-06
aF4.8794331552288678e-06
aF4.1674978750758471e-06
aF3.6552188352129077e-06
aF3.2891250897427668e-06
aF3.0334405738928872e-06
aF3.0334405738928872e-06
aF2.8635141553335459e-06
aF2.7618984293841022e-06
aF2.7156341955945192e-06
aF2.7148976795209598e-06
aF2.7148976795209598e-06
aF2.7519073526337834e-06
aF2.8203343003518908e-06
aF2.9148528316572251e-06
aF3.0310083502167526e-06
aF3.0310083502167526e-06
aF3.1649405382200967e-06
aF3.3133414044106347e-06
aF3.4733757312995403e-06
aF3.6426013388746514e-06
aF3.6426013388746514e-06
aF3.8189047653918216e-06
aF4.0004827649503809e-06
aF4.1857822112247515e-06
aF4.3734944429672393e-06
aF4.3734944429672393e-06
aF4.5625068817974525e-06
aF4.7518308229128264e-06
aF4.9406745166480796e-06
aF5.1284337140161292e-06
aF5.1284337140161292e-06
aF5.3145059164481986e-06
aF5.4984457807629812e-06
aF5.6799271670606285e-06
aF5.8585882276885919e-06
aF5.8585882276885919e-06
aF6.0342466652493334e-06
aF6.2066702223692564e-06
aF6.3757619727815291e-06
aF6.5414233163196838e-06
aF6.5414233163196838e-06
aF6.703572034689282e-06
aF6.8621806086478846e-06
aF7.0172373875817758e-06
aF7.1687242327959224e-06
aF7.1687242327959224e-06
aF7.3166894680135899e-06
aF7.4611180476710072e-06
aF7.6021155929167296e-06
aF7.7396602516071292e-06
aF7.7396602516071292e-06
aF7.8738841932436709e-06
aF8.0048220330221336e-06
aF8.1325087572419515e-06
aF8.2570781674410384e-06
aF8.2570781674410384e-06
aF8.3785713948715375e-06
aF8.4970586892546011e-06
aF8.6126519068943401e-06
aF8.725405333755008e-06
aF8.725405333755008e-06
aF8.8353807530953201e-06
aF8.942689762564023e-06
aF9.0473979300599054e-06
aF9.1495737042993702e-06
aF9.1495737042993702e-06
aF9.2493028047367079e-06
aF9.3466614901402226e-06
aF9.441727193870741e-06
aF9.5345546959843885e-06
aF9.5345546959843885e-06
aF9.6252277255090281e-06
aF9.7138188860860138e-06
aF9.8004038961116101e-06
aF9.8850340998794391e-06
aF9.8850340998794391e-06
aF9.9677819294433672e-06
aF1.0048703174873193e-05
aF1.0127871227419138e-05
aF1.0205350390743467e-05
aF1.0205350390743467e-05
aF1.0281184669337614e-05
aF1.035544313269915e-05
aF1.0428175497014848e-05
aF1.0499446237320401e-05
aF1.0499446237320401e-05
aF1.0569303244284492e-05
aF1.0637804486368747e-05
aF1.0704992907346597e-05
aF1.0770926366189785e-05
aF1.0770926366189785e-05
aF1.0835657077947458e-05
aF1.0899227758950126e-05
aF1.0961690868675171e-05
aF1.1023097879881835e-05
aF1.1023097879881835e-05
aF1.1083494964633997e-05
aF1.1142922497266927e-05
aF1.1201427012891316e-05
aF1.1259055228991151e-05
aF1.1259055228991151e-05
aF1.1315850325634664e-05
aF1.1371854907996056e-05
aF1.1427117207327686e-05
aF1.1481680646225929e-05
aF1.1481680646225929e-05
aF1.153558969430475e-05
aF1.1588889136963384e-05
aF1.1641624353626768e-05
aF1.1693836567782425e-05
aF1.1693836567782425e-05
aF1.1745570727400378e-05
aF1.1796878135658783e-05
aF1.1847804790716872e-05
aF1.189839991627225e-05
aF1.189839991627225e-05
aF1.1948714235007768e-05
aF1.1998800026754963e-05
aF1.2048711630197365e-05
aF1.2098505138325264e-05
aF1.2098505138325264e-05
aF1.2148239758532326e-05
aF1.2197978232314728e-05
aF1.2247789521459088e-05
aF1.2297746274800341e-05
aF1.2297746274800341e-05
aF1.2347925329795171e-05
aF1.2398412738721387e-05
aF1.2449297834161993e-05
aF1.250068041104023e-05
aF1.250068041104023e-05
aF1.2552673386464683e-05
aF1.2605399602122348e-05
aF1.2658996665171564e-05
aF1.2713618966655083e-05
aF1.2713618966655083e-05
aF1.2769443221385286e-05
aF1.2826670592771595e-05
aF1.2885534039725253e-05
aF1.2946305011122263e-05
aF1.2946305011122263e-05
aF1.3009302117574156e-05
aF1.3074903360102306e-05
aF1.3143561415015184e-05
aF1.3215825957252437e-05
aF1.3215825957252437e-05
aF1.3292371843820711e-05
aF1.3374039780294053e-05
aF1.3461891479720577e-05
aF1.3557293207890682e-05
aF1.3557293207890682e-05
aF1.3662035436243804e-05
aF1.3778516986140269e-05
aF1.3910032792816569e-05
aF1.4061246548892071e-05
aF1.4061246548892071e-05
aF1.4238986657418705e-05
aF1.4453674824278463e-05
aF1.4722037630809163e-05
aF1.5072664330172122e-05
aF1.5072664330172122e-05
aF1.5558495703904244e-05
aF1.6288499782161759e-05
aF1.7521681738553868e-05
aF2.0010335781251233e-05
aF2.0010335781251233e-05
aF2.6572089229932395e-05
aF4.685269787097179e-05
aF5.3006200828776312e-05
aF-5.3682680312077074e-06
aF-5.3682680312077074e-06
aF-2.836078459426371e-05
aF4.9387406102723698e-06
aF2.9474166468247576e-05
aF1.6339701850864458e-05
aF1.6339701850864458e-05
aF-1.5601321081361956e-05
aF-4.1842775920586744e-05
aF-2.7023241081391888e-05
aF9.4427317884941734e-06
aF9.4427317884941734e-06
aF2.9419411576340165e-05
aF3.0890914861900731e-05
aF3.1666491018321385e-05
aF3.3640966822434926e-05
aF3.3640966822434926e-05
aF3.6893151413920445e-05
aF3.8384624715475074e-05
aF3.7461278027191702e-05
aF3.7676041205616396e-05
aF3.7676041205616396e-05
aF3.9853630315887354e-05
aF4.3724074868042535e-05
aF4.4690156318954641e-05
aF3.5979068982176663e-05
aF3.5979068982176663e-05
aF2.6500195593758475e-05
aF2.3272499022336369e-05
aF2.2506567270236425e-05
aF2.2337806551359798e-05
aF2.2337806551359798e-05
aF2.2293905277777015e-05
aF2.2264027665885047e-05
aF2.2222793556222834e-05
aF2.2165730939769495e-05
aF2.2165730939769495e-05
aF2.2093284366474195e-05
aF2.2006892412547443e-05
aF2.1908267106472334e-05
aF2.1799103383841987e-05
aF2.1799103383841987e-05
aF2.1681027286725228e-05
aF2.1555544340655734e-05
aF2.1423790614591835e-05
aF2.1287075717470984e-05
aF2.1287075717470984e-05
aF2.1146524475966618e-05
aF2.1002644750776277e-05
aF2.0856796724774884e-05
aF2.0709731312027477e-05
aF2.0709731312027477e-05
aF2.0561895041129725e-05
aF2.0414045486368156e-05
aF2.0266710482396523e-05
aF2.0119930751513312e-05
aF2.0119930751513312e-05
aF1.9974435302107198e-05
aF1.9830626394230259e-05
aF1.9688684051386703e-05
aF1.9548812253072619e-05
aF1.9548812253072619e-05
aF1.9411205957697079e-05
aF1.9276147566606175e-05
aF1.9143622062303828e-05
aF1.9013807901166128e-05
aF1.9013807901166128e-05
aF1.8886652814062927e-05
aF1.8762413778245978e-05
aF1.8641090238780403e-05
aF1.8522774317575736e-05
aF1.8522774317575736e-05
aF1.8407432009772297e-05
aF1.8295097395613445e-05
aF1.8185613286359349e-05
aF1.8079050425765269e-05
aF1.8079050425765269e-05
aF1.7975444531952826e-05
aF1.7874727149211732e-05
aF1.77768683002496e-05
aF1.7681867760084443e-05
aF1.7681867760084443e-05
aF1.7589623395419013e-05
aF1.7500303441851404e-05
aF1.7413463597977709e-05
aF1.7329368431456916e-05
aF1.7329368431456916e-05
aF1.724781137975448e-05
aF1.7168945725026363e-05
aF1.7092455367323376e-05
aF1.701835608891422e-05
aF1.701835608891422e-05
aF1.6946795541746252e-05
aF1.6877442790904011e-05
aF1.6810302412391719e-05
aF1.6745532375710881e-05
aF1.6745532375710881e-05
aF1.6682794142326393e-05
aF1.6622278033345066e-05
aF1.6563695311386338e-05
aF1.6507103768855372e-05
aF1.6507103768855372e-05
aF1.6452504018070963e-05
aF1.6399750701850374e-05
aF1.6348847738740144e-05
aF1.6299707653283236e-05
aF1.6299707653283236e-05
aF1.625230818769923e-05
aF1.6206577732567339e-05
aF1.6162456903720132e-05
aF1.6119999676124699e-05
aF1.6119999676124699e-05
aF1.6078959171939859e-05
aF1.6039457644964873e-05
aF1.6001367123764011e-05
aF1.5964688964555706e-05
aF1.5964688964555706e-05
aF1.5929411465373207e-05
aF1.5895356590845532e-05
aF1.5862597640211335e-05
aF1.5831096391487543e-05
aF1.5831096391487543e-05
aF1.5800739666758396e-05
aF1.57715662426055e-05
aF1.5743514584373269e-05
aF1.5716495742907279e-05
aF1.5716495742907279e-05
aF1.5690548195127016e-05
aF1.5665615368316443e-05
aF1.5641635015274398e-05
aF1.5618618157462736e-05
aF1.5618618157462736e-05
aF1.5596516156811581e-05
aF1.5575306009236453e-05
aF1.55548908038795e-05
aF1.5535344676067679e-05
aF1.5535344676067679e-05
aF1.5516600993893014e-05
aF1.5498635622477252e-05
aF1.5481382856069821e-05
aF1.5464858225164102e-05
aF1.5464858225164102e-05
aF1.5449044743455791e-05
aF1.5433904519126502e-05
aF1.5419411131533385e-05
aF1.5405535777188687e-05
aF1.5405535777188687e-05
aF1.5392274139866787e-05
aF1.5379607094858183e-05
aF1.5367522658143809e-05
aF1.5355982647153278e-05
aF1.5355982647153278e-05
aF1.5344972639620877e-05
aF1.533445679389666e-05
aF1.5324454070000984e-05
aF1.5314937524996637e-05
aF1.5314937524996637e-05
aF1.5305895312737661e-05
aF1.5297314077237873e-05
aF1.5289173172165269e-05
aF1.5281454037226051e-05
aF1.5281454037226051e-05
aF1.5274129055554969e-05
aF1.5267216461743056e-05
aF1.5260697835447688e-05
aF1.5254565554615768e-05
aF1.5254565554615768e-05
aF1.5248800801610963e-05
aF1.5243395303435916e-05
aF1.5238339904734911e-05
aF1.5233627427016807e-05
aF1.5233627427016807e-05
aF1.5229240128706689e-05
aF1.5225170292334286e-05
aF1.5221420762374861e-05
aF1.5217984525345924e-05
aF1.5217984525345924e-05
aF1.5214855357837342e-05
aF1.521202416167376e-05
aF1.52094883485028e-05
aF1.5207240615480694e-05
aF1.5207240615480694e-05
aF1.520527562738148e-05
aF1.5203589468311011e-05
aF1.5202178666641275e-05
aF1.5201039147997978e-05
aF1.5201039147997978e-05
aF1.5200165852306732e-05
aF1.5199559771395209e-05
aF1.5199220455323645e-05
aF1.519914636707618e-05
aF1.519914636707618e-05
aF1.5199339816308271e-05
aF1.5199790441689929e-05
aF1.5200494401001023e-05
aF1.5201449073040062e-05
aF1.5201449073040062e-05
aF1.5202655031524236e-05
aF1.5204111415455497e-05
aF1.5205819255097719e-05
aF1.520778086707172e-05
aF1.520778086707172e-05
aF1.5209999659586068e-05
aF1.5212477861874609e-05
aF1.5215219901784034e-05
aF1.5218228036089569e-05
aF1.5218228036089569e-05
aF1.5221510178203049e-05
aF1.5225073831338972e-05
aF1.5228927987624834e-05
aF1.5233080487354945e-05
aF1.5233080487354945e-05
aF1.5237535801671555e-05
aF1.524228771096865e-05
aF1.5247342636322413e-05
aF1.5252708469451103e-05
aF1.5252708469451103e-05
aF1.5258395212832795e-05
aF1.5264417237968793e-05
aF1.5270787437851409e-05
aF1.5277523139180443e-05
aF1.5277523139180443e-05
aF1.5284642849518729e-05
aF1.5292168367487929e-05
aF1.5300123522226081e-05
aF1.5308535230035273e-05
aF1.5308535230035273e-05
aF1.531743295622466e-05
aF1.5326849427887815e-05
aF1.5336820847869724e-05
aF1.5347387274572417e-05
aF1.5347387274572417e-05
aF1.5358593276232992e-05
aF1.5370488088552079e-05
aF1.5383125767780679e-05
aF1.5396569232016496e-05
aF1.5396569232016496e-05
aF1.5410888497754777e-05
aF1.5426161319837572e-05
aF1.5442475608303963e-05
aF1.5459931619926462e-05
aF1.5459931619926462e-05
aF1.5478642662537871e-05
aF1.5498738609240175e-05
aF1.5520368771500357e-05
aF1.554370581692949e-05
aF1.554370581692949e-05
aF1.5568951105957017e-05
aF1.559634013424709e-05
aF1.5626150160662105e-05
aF1.5658711659735893e-05
aF1.5658711659735893e-05
aF1.5694421852882016e-05
aF1.5733761589336402e-05
aF1.5777320655091866e-05
aF1.5825831377951649e-05
aF1.5825831377951649e-05
aF1.5880214729115969e-05
aF1.594164738077664e-05
aF1.6011658951786867e-05
aF1.6092277051335671e-05
aF1.6092277051335671e-05
aF1.6186250181833306e-05
aF1.6297404192550208e-05
aF1.6431231605083262e-05
aF1.6595910296602426e-05
aF1.6595910296602426e-05
aF1.6804168232229719e-05
aF1.7076922507532356e-05
aF1.7450976118925967e-05
aF1.7997073932259255e-05
aF1.7997073932259255e-05
aF1.8868212273255664e-05
aF2.0453520087902204e-05
aF2.3990237699293177e-05
aF3.4406752549283193e-05
aF3.4406752549283193e-05
aF5.9007751724850092e-05
aF4.107538667769279e-05
aF-2.2144434567907433e-05
aF-1.3718035325726571e-05
aF-1.3718035325726571e-05
aF1.8562857562694528e-05
aF3.2246228434511496e-05
aF1.5746522011950713e-05
aF-1.9861205891274355e-05
aF-1.9861205891274355e-05
aF-4.4334541347262339e-05
aF-2.4920337748346372e-05
aF1.6870059101412328e-05
aF2.9494931731617321e-05
aF2.9494931731617321e-05
aF3.0380221545084121e-05
aF3.1294361459410799e-05
aF3.4044597343598699e-05
aF3.7926921021414987e-05
aF3.7926921021414987e-05
aF3.8479048234408081e-05
aF3.7631525255181925e-05
aF3.842324808821098e-05
aF4.1106476967861755e-05
aF4.1106476967861755e-05
aF4.5063610905539851e-05
aF4.4688481639534397e-05
aF3.506306652045562e-05
aF2.7052674447113004e-05
aF2.7052674447113004e-05
aF2.4626263054392787e-05
aF2.4118642315992341e-05
aF2.4060529344242003e-05
aF2.4087225630490032e-05
aF2.4087225630490032e-05
aF2.4112691058186877e-05
aF2.4117386292432151e-05
aF2.4098168659071923e-05
aF2.4056066551576463e-05
aF2.4056066551576463e-05
aF2.3992736385943173e-05
aF2.3910093300206085e-05
aF2.3810161047506728e-05
aF2.3695221649493399e-05
aF2.3695221649493399e-05
aF2.3566785181933809e-05
aF2.342721752252084e-05
aF2.3277886001822914e-05
aF2.3120722528047848e-05
aF2.3120722528047848e-05
aF2.2956954779496023e-05
aF2.2787712011230659e-05
aF2.2614743157038394e-05
aF2.2439072657943802e-05
aF2.2439072657943802e-05
aF2.2261086104199097e-05
aF2.2082218031996144e-05
aF2.1903093125505818e-05
aF2.1724292364652166e-05
aF2.1724292364652166e-05
aF2.1546037150372148e-05
aF2.1369333966254369e-05
aF2.1194281361258152e-05
aF2.1021486272966894e-05
aF2.1021486272966894e-05
aF2.0850612246491046e-05
aF2.0682524092433076e-05
aF2.0517180704087195e-05
aF2.0354788761967696e-05
aF2.0354788761967696e-05
aF2.0195472223871174e-05
aF2.0039243850878826e-05
aF1.9885929986126773e-05
aF1.9736028887212991e-05
aF1.9736028887212991e-05
aF1.9589462375927658e-05
aF1.9446135285483899e-05
aF1.9306141203606887e-05
aF1.9169401135660359e-05
aF1.9169401135660359e-05
aF1.9035939343442118e-05
aF1.8905703162796825e-05
aF1.8778649976668383e-05
aF1.8654896176091484e-05
aF1.8654896176091484e-05
aF1.8534123397170112e-05
aF1.8416349574024439e-05
aF1.8301560077961273e-05
aF1.8189681211775639e-05
aF1.8189681211775639e-05
aF1.808081355584175e-05
aF1.7974828419742453e-05
aF1.7871559388365079e-05
aF1.777085767065889e-05
aF1.777085767065889e-05
aF1.767283106083665e-05
aF1.757762632709521e-05
aF1.748469732988018e-05
aF1.7394255727379309e-05
aF1.7394255727379309e-05
aF1.7306360408904747e-05
aF1.7220596392022699e-05
aF1.7137188480663808e-05
aF1.7055989388384336e-05
aF1.7055989388384336e-05
aF1.6976922534197619e-05
aF1.6900005680642592e-05
aF1.6825017298442791e-05
aF1.6752099206418432e-05
aF1.6752099206418432e-05
aF1.6681047793422176e-05
aF1.6611854986792106e-05
aF1.6544462053506895e-05
aF1.6478869448502683e-05
aF1.6478869448502683e-05
aF1.641488781868833e-05
aF1.6352642211951159e-05
aF1.6291876185814499e-05
aF1.6232806215640302e-05
aF1.6232806215640302e-05
aF1.6175125859317668e-05
aF1.6118946829791224e-05
aF1.6064223754317074e-05
aF1.6010758741923407e-05
aF1.6010758741923407e-05
aF1.5958693070859291e-05
aF1.5907923823199466e-05
aF1.5858297991391684e-05
aF1.5809920166236986e-05
aF1.5809920166236986e-05
aF1.57627536431761e-05
aF1.5716631201309726e-05
aF1.5671615388928885e-05
aF1.5627699188754038e-05
aF1.5627699188754038e-05
aF1.5584727232139222e-05
aF1.5542761585937701e-05
aF1.5501767988401538e-05
aF1.5461703556229565e-05
aF1.5461703556229565e-05
aF1.542247378879873e-05
aF1.5384128507152826e-05
aF1.534662756452974e-05
aF1.5309927489261607e-05
aF1.5309927489261607e-05
aF1.5273964713989971e-05
aF1.523877051935775e-05
aF1.520432278217045e-05
aF1.5170576119190667e-05
aF1.5170576119190667e-05
aF1.5137492209884554e-05
aF1.5105034913579554e-05
aF1.5073237190579816e-05
aF1.5042052286441855e-05
aF1.5042052286441855e-05
aF1.5011460033558777e-05
aF1.4981453744994193e-05
aF1.49519665529359e-05
aF1.4923015780688111e-05
aF1.4923015780688111e-05
aF1.4894595689359737e-05
aF1.4866680674807486e-05
aF1.4839244760582959e-05
aF1.4812278734503834e-05
aF1.4812278734503834e-05
aF1.4785774267727544e-05
aF1.4759684808817124e-05
aF1.4734026421133275e-05
aF1.4708785772302714e-05
aF1.4708785772302714e-05
aF1.4683942815226704e-05
aF1.465949271564581e-05
aF1.4635418280176071e-05
aF1.4611706009814624e-05
aF1.4611706009814624e-05
aF1.4588347019138819e-05
aF1.4565318914631162e-05
aF1.4542628526873423e-05
aF1.4520267281749715e-05
aF1.4520267281749715e-05
aF1.4498222457056102e-05
aF1.4476482545521753e-05
aF1.4455041993806183e-05
aF1.4433892468396691e-05
aF1.4433892468396691e-05
aF1.4413030038040154e-05
aF1.4392446964131563e-05
aF1.4372132183322431e-05
aF1.4352071946148291e-05
aF1.4352071946148291e-05
aF1.4332273946183293e-05
aF1.4312729954941958e-05
aF1.4293437151482385e-05
aF1.4274391906852542e-05
aF1.4274391906852542e-05
aF1.4255587667162891e-05
aF1.4237020231176027e-05
aF1.4218685892341348e-05
aF1.4200581743831346e-05
aF1.4200581743831346e-05
aF1.4182704977144809e-05
aF1.4165053682991513e-05
aF1.4147624476104467e-05
aF1.4130416519575702e-05
aF1.4130416519575702e-05
aF1.4113423745590871e-05
aF1.4096648023028621e-05
aF1.4080089212156062e-05
aF1.4063747262643781e-05
aF1.4063747262643781e-05
aF1.4047623511605458e-05
aF1.4031717607392408e-05
aF1.4016029012530286e-05
aF1.4000558347653521e-05
aF1.4000558347653521e-05
aF1.3985306839304616e-05
aF1.3970276018239945e-05
aF1.395546759509231e-05
aF1.394088464610761e-05
aF1.394088464610761e-05
aF1.3926529678666225e-05
aF1.3912406183671579e-05
aF1.3898516947040114e-05
aF1.3884865846719759e-05
aF1.3884865846719759e-05
aF1.3871457475210356e-05
aF1.3858296837530745e-05
aF1.3845388858293046e-05
aF1.3832737677591103e-05
aF1.3832737677591103e-05
aF1.3820351897254949e-05
aF1.3808239229622752e-05
aF1.3796407757722804e-05
aF1.3784867075398293e-05
aF1.3784867075398293e-05
aF1.377362625191569e-05
aF1.37626959780701e-05
aF1.3752087017947179e-05
aF1.3741811524442128e-05
aF1.3741811524442128e-05
aF1.373188286284504e-05
aF1.3722315303673711e-05
aF1.3713125165222576e-05
aF1.370432847964447e-05
aF1.370432847964447e-05
aF1.3695943845397238e-05
aF1.3687991298408918e-05
aF1.368049346894776e-05
aF1.3673474263773073e-05
aF1.3673474263773073e-05
aF1.3666959997701497e-05
aF1.3660980228007356e-05
aF1.3655566789098298e-05
aF1.3650755017611094e-05
aF1.3650755017611094e-05
aF1.3646584209097669e-05
aF1.3643097602462477e-05
aF1.3640343805173965e-05
aF1.3638376801846375e-05
aF1.3638376801846375e-05
aF1.3637256761619111e-05
aF1.3637050832292746e-05
aF1.3637834729311857e-05
aF1.3639695441448036e-05
aF1.3639695441448036e-05
aF1.3642731566510001e-05
aF1.3647055350482064e-05
aF1.3652796226009795e-05
aF1.3660103171800303e-05
aF1.3660103171800303e-05
aF1.3669149894181544e-05
aF1.3680139400893509e-05
aF1.3693311039418928e-05
aF1.3708949333746517e-05
aF1.3708949333746517e-05
aF1.3727395263189091e-05
aF1.3749061961271085e-05
aF1.3774454521049125e-05
aF1.3804198341524245e-05
aF1.3804198341524245e-05
aF1.383907743732752e-05
aF1.3880088758662086e-05
aF1.3928522629961873e-05
aF1.3986079294058605e-05
aF1.3986079294058605e-05
aF1.4055048653370575e-05
aF1.4138591350187645e-05
aF1.4241199396069346e-05
aF1.4369476944077878e-05
aF1.4369476944077878e-05
aF1.4533541823869379e-05
aF1.4749693881345035e-05
aF1.5045885147954652e-05
aF1.54740450079897e-05
aF1.54740450079897e-05
aF1.6141397678007204e-05
aF1.7303641493856126e-05
aF1.9706076561038858e-05
aF2.6144238119575103e-05
aF2.6144238119575103e-05
aF4.595182320561642e-05
aF5.1995066413543514e-05
aF-6.7193712104004814e-06
aF-2.9158844221811264e-05
aF-2.9158844221811264e-05
aF6.5249145953868489e-06
aF3.3529937070711076e-05
aF1.8275805397863175e-05
aF-1.8139832077247764e-05
aF-1.8139832077247764e-05
aF-4.48424823865761e-05
aF-2.5631392765743112e-05
aF1.6251331196520405e-05
aF2.8021431794377294e-05
aF2.8021431794377294e-05
aF2.8767492964845022e-05
aF2.9190690647469834e-05
aF3.1225620020314123e-05
aF3.5226041187604201e-05
aF3.5226041187604201e-05
aF3.6748770639053759e-05
aF3.582678957555446e-05
aF3.6231625489057141e-05
aF3.8721634194389181e-05
aF3.8721634194389181e-05
aF4.2713498387317536e-05
aF4.2778240732332739e-05
aF3.3453238354595223e-05
aF2.5586176234857307e-05
aF2.5586176234857307e-05
aF2.319530776621792e-05
aF2.2700587459658423e-05
aF2.2655361870054273e-05
aF2.2700080372477448e-05
aF2.2700080372477448e-05
aF2.2750204788377537e-05
aF2.2786033974020383e-05
aF2.2803737970907126e-05
aF2.2802059436492806e-05
aF2.2802059436492806e-05
aF2.2781116111940725e-05
aF2.2740391996490849e-05
aF2.2680080075346872e-05
aF2.2600046353043522e-05
aF2.2600046353043522e-05
aF2.2500795444458902e-05
aF2.2382735109638055e-05
aF2.2248039691620644e-05
aF2.2097505489725627e-05
aF2.2097505489725627e-05
aF2.1932869875880013e-05
aF2.1756533446187511e-05
aF2.1570048101324937e-05
aF2.1375290886378198e-05
aF2.1375290886378198e-05
aF2.1174625286620331e-05
aF2.0968435210259879e-05
aF2.0759473410486453e-05
aF2.0548277562540511e-05
aF2.0548277562540511e-05
aF2.0336609869702052e-05
aF2.0124730514418341e-05
aF1.991407646868369e-05
aF1.9705145597957819e-05
aF1.9705145597957819e-05
aF1.949814225206387e-05
aF1.9293992162344791e-05
aF1.9093354697841595e-05
aF1.8895412969996881e-05
aF1.8895412969996881e-05
aF1.8701517994840607e-05
aF1.8511550386497631e-05
aF1.8325565085906793e-05
aF1.8143192942622442e-05
aF1.8143192942622442e-05
aF1.7965387343461876e-05
aF1.779160517590289e-05
aF1.7622014173790978e-05
aF1.7456501050100732e-05
aF1.7456501050100732e-05
aF1.7295168983058567e-05
aF1.7137869697966552e-05
at.