(lp1
(Vh.MC5[14].apic[2](1)
p2
(lp3
F52.690447512019162
atp4
a(Vh.TC4[6].apic[2](1)
p5
(lp6
F34.369260448906019
atp7
a(Vh.MC5[14].apic[2](1)
p8
(lp9
F474.71165306718058
atp10
a(Vh.TC4[6].apic[2](1)
p11
(lp12
F492.98024202533554
atp13
a(Vh.MC5[14].apic[2](1)
p14
(lp15
F1007.4610282804633
aF1071.019923863822
aF1112.309665512023
atp16
a(Vh.TC4[6].apic[2](1)
p17
(lp18
F1050.959898828527
aF1070.9790919387515
aF1094.4788729878833
atp19
a(Vh.MC5[14].apic[2](1)
p20
(lp21
F1428.4117943314182
aF1438.3259456923911
aF1477.7516026896883
aF1480.8585361052792
atp22
a(Vh.TC4[6].apic[2](1)
p23
(lp24
F1410.2096292335898
aF1476.5482935711545
aF1490.5676229879675
aF1501.1174850467276
atp25
a(Vh.MC5[14].apic[2](1)
p26
(lp27
F221.92918321590355
atp28
a(Vh.TC4[6].apic[2](1)
p29
(lp30
F272.11767598280915
atp31
a(Vh.MC5[14].apic[2](1)
p32
(lp33
F642.34556047545868
aF659.5856105300403
atp34
a(Vh.TC4[6].apic[2](1)
p35
(lp36
F671.13725465916934
aF684.06478376963048
atp37
a(Vh.MC5[14].apic[2](1)
p38
(lp39
F1657.6721450303876
aF1682.5914474922474
aF1684.497678275025
aF1710.6300206510632
atp40
a(Vh.TC4[6].apic[2](1)
p41
(lp42
F1608.1809936358898
aF1635.3294382943575
aF1644.1860939482215
aF1703.088676627314
atp43
a(Vh.MC5[14].apic[2](1)
p44
(lp45
F1266.8898904688415
aF1273.1377869120813
aF1304.131324714511
atp46
a(Vh.TC4[6].apic[2](1)
p47
(lp48
F1244.6341515807928
aF1271.0838816514986
aF1279.0498531503442
atp49
a(Vh.MC5[14].apic[2](1)
p50
(ltp51
a(Vh.TC4[6].apic[2](1)
p52
(ltp53
a(Vh.MC5[14].apic[2](1)
p54
(lp55
F858.88997795618525
aF920.69309769857682
atp56
a(Vh.TC4[6].apic[2](1)
p57
(lp58
F859.89966592620158
aF907.73124103470309
atp59
a(Vh.TC5[6].apic[1](1)
p60
(lp61
F84.703029332774747
atp62
a(Vh.MC4[0].apic[3](1)
p63
(lp64
F23.452630291606667
atp65
a(Vh.TC5[6].apic[1](1)
p66
(lp67
F487.72252056179508
atp68
a(Vh.MC4[0].apic[3](1)
p69
(lp70
F495.24306023333105
atp71
a(Vh.TC5[6].apic[1](1)
p72
(lp73
F1048.054128646296
aF1062.5198798569384
aF1089.8777862543418
atp74
a(Vh.MC4[0].apic[3](1)
p75
(lp76
F1027.5195922300472
aF1049.6577596722318
aF1057.9641248011849
atp77
a(Vh.TC5[6].apic[1](1)
p78
(lp79
F1439.2439161804793
aF1454.78904105893
aF1471.3412087657478
aF1502.1037675663099
atp80
a(Vh.MC4[0].apic[3](1)
p81
(lp82
F1425.2496336868642
aF1452.3697754672496
aF1459.555986835496
aF1485.8703438140899
atp83
a(Vh.TC5[6].apic[1](1)
p84
(lp85
F257.24361899975332
atp86
a(Vh.MC4[0].apic[3](1)
p87
(lp88
F226.23483600521647
atp89
a(Vh.TC5[6].apic[1](1)
p90
(lp91
F656.66511251197232
aF710.98590448567768
atp92
a(Vh.MC4[0].apic[3](1)
p93
(lp94
F651.96897289531739
aF678.51198677692787
atp95
a(Vh.TC5[6].apic[1](1)
p96
(lp97
F1647.0088553354758
aF1658.351552133357
aF1663.5472125894426
atp98
a(Vh.MC4[0].apic[3](1)
p99
(lp100
F1615.800491787347
aF1677.3923115939913
aF1681.1944627057962
aF1686.3090105901867
atp101
a(Vh.TC5[6].apic[1](1)
p102
(lp103
F1240.5505970342335
aF1258.9742120303238
aF1291.2916276418134
atp104
a(Vh.MC4[0].apic[3](1)
p105
(lp106
F1204.2819873310655
aF1241.4893375770062
aF1261.8879177808576
atp107
a(Vh.TC5[6].apic[1](1)
p108
(ltp109
a(Vh.MC4[0].apic[3](1)
p110
(ltp111
a(Vh.TC5[6].apic[1](1)
p112
(lp113
F860.5939909390371
aF864.092717190602
atp114
a(Vh.MC4[0].apic[3](1)
p115
(lp116
F838.23291780305715
aF859.15775870599134
atp117
a(Vh.TC4[12].apic[2](1)
p118
(lp119
F97.712207606883709
atp120
a(Vh.MC5[0].apic[2](1)
p121
(lp122
F39.22943339150649
atp123
a(Vh.TC5[20].apic[1](1)
p124
(lp125
F42.267552812844563
atp126
a(Vh.TC4[12].apic[2](1)
p127
(lp128
F501.46625353977203
atp129
a(Vh.MC5[0].apic[2](1)
p130
(lp131
F423.02350064134004
atp132
a(Vh.TC5[20].apic[1](1)
p133
(lp134
F420.69979514250969
atp135
a(Vh.TC4[12].apic[2](1)
p136
(lp137
F1079.9632278387376
aF1092.0143074870671
aF1102.5948437287761
atp138
a(Vh.MC5[0].apic[2](1)
p139
(lp140
F1022.6659402976338
aF1060.3052219037595
aF1069.1685912126609
atp141
a(Vh.TC5[20].apic[1](1)
p142
(lp143
F1053.0779190059295
aF1058.0307808092082
aF1058.9722645738723
atp144
a(Vh.TC4[12].apic[2](1)
p145
(lp146
F1443.5493779581225
aF1444.8577126416471
aF1468.1271545175737
aF1474.454892666427
atp147
a(Vh.MC5[0].apic[2](1)
p148
(lp149
F1449.2303093817627
aF1477.7180635379245
aF1498.5153526492231
aF1500.1722559585623
atp150
a(Vh.TC5[20].apic[1](1)
p151
(lp152
F1462.8263302808011
aF1466.2790804634376
aF1472.6937981004173
aF1474.5416815345154
atp153
a(Vh.TC4[12].apic[2](1)
p154
(lp155
F284.91356389477983
atp156
a(Vh.MC5[0].apic[2](1)
p157
(lp158
F279.99304281522581
atp159
a(Vh.TC5[20].apic[1](1)
p160
(lp161
F204.38301764876337
atp162
a(Vh.TC4[12].apic[2](1)
p163
(lp164
F665.95288163858618
aF683.86630374026345
atp165
a(Vh.MC5[0].apic[2](1)
p166
(lp167
F652.46165787379891
aF685.60485280423177
atp168
a(Vh.TC5[20].apic[1](1)
p169
(lp170
F635.65247440720191
aF672.52897806818078
atp171
a(Vh.TC4[12].apic[2](1)
p172
(lp173
F1601.0880033668543
aF1663.8691463172856
aF1675.7596261939568
atp174
a(Vh.MC5[0].apic[2](1)
p175
(lp176
F1641.1919462832186
aF1649.6083475160283
aF1660.8422787823313
aF1671.3538645941805
atp177
a(Vh.TC5[20].apic[1](1)
p178
(lp179
F1628.1351853383919
aF1655.8412237136793
aF1655.8653296965601
aF1659.334621629959
atp180
a(Vh.TC4[12].apic[2](1)
p181
(lp182
F1278.3106794872979
aF1281.1437101229099
atp183
a(Vh.MC5[0].apic[2](1)
p184
(lp185
F1255.183121039538
aF1281.9033100302136
aF1286.9931917259123
atp186
a(Vh.TC5[20].apic[1](1)
p187
(lp188
F1225.2359297490061
aF1230.9340487644854
aF1261.8978567011718
atp189
a(Vh.TC4[12].apic[2](1)
p190
(ltp191
a(Vh.MC5[0].apic[2](1)
p192
(ltp193
a(Vh.TC5[20].apic[1](1)
p194
(ltp195
a(Vh.TC4[12].apic[2](1)
p196
(lp197
F853.45294839546068
aF892.0158231681005
atp198
a(Vh.MC5[0].apic[2](1)
p199
(lp200
F863.91576469202971
aF869.33745650719868
atp201
a(Vh.TC5[20].apic[1](1)
p202
(lp203
F859.68229276692443
aF880.62752759458169
atp204
a(Vh.MC5[2].apic[2](1)
p205
(lp206
F74.101569586175515
atp207
a(Vh.TC4[10].apic[2](1)
p208
(lp209
F65.92080796823906
atp210
a(Vh.MC5[2].apic[2](1)
p211
(lp212
F476.52775991968201
atp213
a(Vh.TC4[10].apic[2](1)
p214
(lp215
F453.10784565499927
atp216
a(Vh.MC5[2].apic[2](1)
p217
(lp218
F1040.4389763618026
aF1065.678092214903
aF1087.6115112218247
atp219
a(Vh.TC4[10].apic[2](1)
p220
(lp221
F1062.3480871161253
aF1077.8671680828486
aF1091.0477007659135
atp222
a(Vh.MC5[2].apic[2](1)
p223
(lp224
F1447.7186593826689
aF1464.6035205720066
aF1489.4238503331815
aF1520.0884910722336
atp225
a(Vh.TC4[10].apic[2](1)
p226
(lp227
F1443.0038453195302
aF1447.3332820498858
aF1451.9566989983687
aF1470.4747830517917
atp228
a(Vh.MC5[2].apic[2](1)
p229
(lp230
F230.85243713829888
atp231
a(Vh.TC4[10].apic[2](1)
p232
(lp233
F239.26388110619018
atp234
a(Vh.MC5[2].apic[2](1)
p235
(lp236
F628.79173618463653
aF661.33568487677906
atp237
a(Vh.TC4[10].apic[2](1)
p238
(lp239
F677.123658390022
aF707.35035256256128
atp240
a(Vh.MC5[2].apic[2](1)
p241
(lp242
F1636.5282548089763
aF1644.4116786712743
aF1662.4826808224484
aF1703.5350666072486
atp243
a(Vh.TC4[10].apic[2](1)
p244
(lp245
F1654.9344570042647
aF1663.4753092999802
aF1685.7824727204604
aF1714.8157934239136
atp246
a(Vh.MC5[2].apic[2](1)
p247
(lp248
F1241.2625262415886
aF1269.4757136486242
aF1305.1410487100102
atp249
a(Vh.TC4[10].apic[2](1)
p250
(lp251
F1250.1550117485788
aF1250.2854352732427
aF1257.7211270621713
atp252
a(Vh.MC5[2].apic[2](1)
p253
(ltp254
a(Vh.TC4[10].apic[2](1)
p255
(ltp256
a(Vh.MC5[2].apic[2](1)
p257
(lp258
F854.04986182089044
aF912.86040890178117
atp259
a(Vh.TC4[10].apic[2](1)
p260
(lp261
F805.20335001679541
aF880.27747806818502
atp262
a(Vh.TC4[4].apic[2](1)
p263
(lp264
F41.67866836746488
atp265
a(Vh.MC5[4].apic[2](1)
p266
(lp267
F57.005397674088833
atp268
a(Vh.TC4[4].apic[2](1)
p269
(lp270
F459.31877925741225
atp271
a(Vh.MC5[4].apic[2](1)
p272
(lp273
F503.45749709302652
atp274
a(Vh.TC4[4].apic[2](1)
p275
(lp276
F1042.3384200866217
aF1056.6779983171223
aF1064.7473350285336
atp277
a(Vh.MC5[4].apic[2](1)
p278
(lp279
F1063.3229115095239
aF1075.5396212217186
aF1076.2985037730552
atp280
a(Vh.TC4[4].apic[2](1)
p281
(lp282
F1452.5559994342859
aF1452.8896579309237
aF1458.3735103354404
aF1491.6852200182268
atp283
a(Vh.MC5[4].apic[2](1)
p284
(lp285
F1446.4428346061143
aF1474.3617768992697
aF1479.3083936355436
aF1494.5585815443153
atp286
a(Vh.TC4[4].apic[2](1)
p287
(lp288
F273.67514451551125
atp289
a(Vh.MC5[4].apic[2](1)
p290
(lp291
F304.97364463159465
atp292
a(Vh.TC4[4].apic[2](1)
p293
(lp294
F657.50778871879731
aF676.09974912062933
atp295
a(Vh.MC5[4].apic[2](1)
p296
(lp297
F665.30503138945699
aF675.23697452366866
atp298
a(Vh.TC4[4].apic[2](1)
p299
(lp300
F1646.4727863302683
aF1649.2260619579206
aF1659.2557125951139
aF1661.1564404538608
atp301
a(Vh.MC5[4].apic[2](1)
p302
(lp303
F1643.248338294075
aF1665.8316968321951
aF1666.5055729102132
aF1676.8416610111399
atp304
a(Vh.TC4[4].apic[2](1)
p305
(lp306
F1222.9689890878087
aF1263.5268072857718
aF1274.2781724300937
atp307
a(Vh.MC5[4].apic[2](1)
p308
(lp309
F1240.6872745359371
aF1295.1541911732445
aF1321.7051507160706
atp310
a(Vh.TC4[4].apic[2](1)
p311
(ltp312
a(Vh.MC5[4].apic[2](1)
p313
(ltp314
a(Vh.TC4[4].apic[2](1)
p315
(lp316
F820.94998386144437
aF848.28967662279172
atp317
a(Vh.MC5[4].apic[2](1)
p318
(lp319
F859.46876755364337
aF879.44905884357308
atp320
a(Vh.MC5[6].apic[2](1)
p321
(lp322
F65.683605415863738
atp323
a(Vh.TC5[10].apic[1](1)
p324
(lp325
F67.457995359189141
atp326
a(Vh.MC5[6].apic[2](1)
p327
(lp328
F462.38387984890898
atp329
a(Vh.TC5[10].apic[1](1)
p330
(lp331
F412.10189850399206
atp332
a(Vh.MC5[6].apic[2](1)
p333
(lp334
F1038.9103538173254
aF1062.8040732113714
aF1064.8263659534987
atp335
a(Vh.TC5[10].apic[1](1)
p336
(lp337
F1022.1487442767118
aF1042.230282537452
aF1066.7572018233761
atp338
a(Vh.MC5[6].apic[2](1)
p339
(lp340
F1420.4115537463042
aF1441.4757069817331
aF1476.6555377768038
aF1489.9459051963902
atp341
a(Vh.TC5[10].apic[1](1)
p342
(lp343
F1439.6669458344991
aF1445.6273773663856
aF1447.8296865696343
aF1487.4170528159261
atp344
a(Vh.MC5[6].apic[2](1)
p345
(lp346
F238.08691714221555
atp347
a(Vh.TC5[10].apic[1](1)
p348
(lp349
F229.10962280574373
atp350
a(Vh.MC5[6].apic[2](1)
p351
(lp352
F655.3582006780797
aF705.81560319611265
atp353
a(Vh.TC5[10].apic[1](1)
p354
(lp355
F685.9638486000041
aF695.79670237770131
atp356
a(Vh.MC5[6].apic[2](1)
p357
(lp358
F1616.8993221301916
aF1633.748454749245
aF1643.1355570982832
aF1676.4335329855458
atp359
a(Vh.TC5[10].apic[1](1)
p360
(lp361
F1650.5459079660034
aF1657.1932808845984
aF1673.566413313057
aF1701.1387307164248
atp362
a(Vh.MC5[6].apic[2](1)
p363
(lp364
F1250.8972912164991
aF1263.6660576157137
aF1276.026087773072
atp365
a(Vh.TC5[10].apic[1](1)
p366
(lp367
F1242.3639227828112
aF1291.579515596738
aF1295.4261360265127
atp368
a(Vh.MC5[6].apic[2](1)
p369
(ltp370
a(Vh.TC5[10].apic[1](1)
p371
(ltp372
a(Vh.MC5[6].apic[2](1)
p373
(lp374
F864.87149830681926
aF866.7002770004641
atp375
a(Vh.TC5[10].apic[1](1)
p376
(lp377
F823.03301751850086
aF890.40038967329519
atp378
a(Vh.MC5[8].apic[2](1)
p379
(lp380
F71.675192472696764
atp381
a(Vh.TC5[16].apic[1](1)
p382
(lp383
F77.814091527856391
atp384
a(Vh.TC5[0].apic[1](1)
p385
(lp386
F41.288548042906839
atp387
a(Vh.MC5[8].apic[2](1)
p388
(lp389
F424.75028380289376
atp390
a(Vh.TC5[16].apic[1](1)
p391
(lp392
F496.94729624522012
atp393
a(Vh.TC5[0].apic[1](1)
p394
(lp395
F455.34907949503884
atp396
a(Vh.MC5[8].apic[2](1)
p397
(lp398
F1024.9069838079779
aF1080.927176597703
aF1099.3469326232569
atp399
a(Vh.TC5[16].apic[1](1)
p400
(lp401
F1049.9835705593728
aF1052.8739275274161
aF1067.2872798444578
atp402
a(Vh.TC5[0].apic[1](1)
p403
(lp404
F1037.5220591206501
aF1080.0639174544565
aF1089.0544911633808
atp405
a(Vh.MC5[8].apic[2](1)
p406
(lp407
F1469.8651359862076
aF1489.3409151728217
aF1491.2391907657045
atp408
a(Vh.TC5[16].apic[1](1)
p409
(lp410
F1432.8796081916037
aF1444.3693799692894
aF1447.7121091017159
aF1499.6835852201541
atp411
a(Vh.TC5[0].apic[1](1)
p412
(lp413
F1445.8132219863596
aF1455.0204207197426
aF1478.1152666663706
aF1521.389887071728
atp414
a(Vh.MC5[8].apic[2](1)
p415
(lp416
F251.46238828737648
atp417
a(Vh.TC5[16].apic[1](1)
p418
(lp419
F254.42787101000357
atp420
a(Vh.TC5[0].apic[1](1)
p421
(ltp422
a(Vh.MC5[8].apic[2](1)
p423
(lp424
F608.5615277290608
aF707.86137473904841
atp425
a(Vh.TC5[16].apic[1](1)
p426
(lp427
F626.32036626725676
aF642.51298124960522
atp428
a(Vh.TC5[0].apic[1](1)
p429
(lp430
F617.98657390907977
aF662.892582942074
atp431
a(Vh.MC5[8].apic[2](1)
p432
(lp433
F1647.8508539044892
aF1652.404329651175
aF1654.4178711830637
aF1666.5673622126842
atp434
a(Vh.TC5[16].apic[1](1)
p435
(lp436
F1638.8534656523771
aF1660.9513959978349
aF1698.1336030166376
atp437
a(Vh.TC5[0].apic[1](1)
p438
(lp439
F1648.0708901640437
aF1664.4642620029035
aF1671.2877840269848
aF1694.0079019581117
atp440
a(Vh.MC5[8].apic[2](1)
p441
(lp442
F1261.7288228311247
aF1285.397187593039
aF1292.4035301872334
atp443
a(Vh.TC5[16].apic[1](1)
p444
(lp445
F1266.5083947214571
aF1279.2997893726306
aF1298.6271408639445
atp446
a(Vh.TC5[0].apic[1](1)
p447
(lp448
F1238.8998055725458
aF1264.1530266570555
aF1289.8231783896515
atp449
a(Vh.MC5[8].apic[2](1)
p450
(ltp451
a(Vh.TC5[16].apic[1](1)
p452
(ltp453
a(Vh.TC5[0].apic[1](1)
p454
(ltp455
a(Vh.MC5[8].apic[2](1)
p456
(lp457
F871.69949158196516
aF899.51610131360974
atp458
a(Vh.TC5[16].apic[1](1)
p459
(lp460
F848.49099074844173
aF856.33426315684949
atp461
a(Vh.TC5[0].apic[1](1)
p462
(lp463
F850.16048975123033
aF877.20067951984981
atp464
a(Vh.MC5[10].apic[2](1)
p465
(lp466
F49.943229512154879
atp467
a(Vh.TC3[2].apic[2](1)
p468
(lp469
F91.833423958700081
atp470
a(Vh.TC5[12].apic[1](1)
p471
(lp472
F64.868549980777559
atp473
a(Vh.MC5[10].apic[2](1)
p474
(lp475
F470.14304587271488
atp476
a(Vh.TC3[2].apic[2](1)
p477
(lp478
F474.04393296674158
atp479
a(Vh.TC5[12].apic[1](1)
p480
(lp481
F471.31259894228526
atp482
a(Vh.MC5[10].apic[2](1)
p483
(lp484
F1021.8524703231074
aF1085.8567630240514
atp485
a(Vh.TC3[2].apic[2](1)
p486
(lp487
F1062.3318620081118
aF1068.3194393797876
aF1072.3169622733431
atp488
a(Vh.TC5[12].apic[1](1)
p489
(lp490
F1026.854002996301
aF1062.4350002220513
aF1065.2897008894429
atp491
a(Vh.MC5[10].apic[2](1)
p492
(lp493
F1459.3302810286009
aF1463.7631931301989
aF1477.1609580980971
aF1507.8866438784366
atp494
a(Vh.TC3[2].apic[2](1)
p495
(lp496
F1451.673644848848
aF1459.9275365087799
aF1461.6774662085052
aF1499.8300472899239
atp497
a(Vh.TC5[12].apic[1](1)
p498
(lp499
F1448.7324814052965
aF1463.6025613383356
aF1466.4971950325992
aF1481.2717484805255
atp500
a(Vh.MC5[10].apic[2](1)
p501
(lp502
F233.87703056585914
atp503
a(Vh.TC3[2].apic[2](1)
p504
(lp505
F310.98785616549969
atp506
a(Vh.TC5[12].apic[1](1)
p507
(lp508
F263.66835284427924
atp509
a(Vh.MC5[10].apic[2](1)
p510
(lp511
F661.21381051472599
aF675.7478650626299
atp512
a(Vh.TC3[2].apic[2](1)
p513
(lp514
F626.3687988652099
aF635.00447261836246
atp515
a(Vh.TC5[12].apic[1](1)
p516
(lp517
F602.14629078296014
aF657.40713989652374
atp518
a(Vh.MC5[10].apic[2](1)
p519
(lp520
F1611.2622501924466
aF1663.9009575932828
aF1665.3686193041526
aF1683.1231547743714
atp521
a(Vh.TC3[2].apic[2](1)
p522
(lp523
F1632.2336798813856
aF1650.1865067624778
aF1667.3421034286646
aF1694.2154134037289
atp524
a(Vh.TC5[12].apic[1](1)
p525
(lp526
F1615.6487731293464
aF1673.1820391494334
aF1681.1111822405387
aF1702.2935073845583
atp527
a(Vh.MC5[10].apic[2](1)
p528
(lp529
F1259.5138786262357
aF1271.9827104296094
aF1297.606590306277
atp530
a(Vh.TC3[2].apic[2](1)
p531
(lp532
F1268.1704158273694
aF1269.7258902963943
aF1279.9846112480557
atp533
a(Vh.TC5[12].apic[1](1)
p534
(lp535
F1224.4804207434356
aF1255.8866177747693
aF1292.3218009518698
atp536
a(Vh.MC5[10].apic[2](1)
p537
(ltp538
a(Vh.TC3[2].apic[2](1)
p539
(ltp540
a(Vh.TC5[12].apic[1](1)
p541
(ltp542
a(Vh.MC5[10].apic[2](1)
p543
(lp544
F868.77529853553142
aF868.81333055894856
atp545
a(Vh.TC3[2].apic[2](1)
p546
(lp547
F832.57473383931062
aF913.16700189525261
atp548
a(Vh.TC5[12].apic[1](1)
p549
(lp550
F867.55443451025337
aF895.55160910302641
atp551
a(Vh.MC5[12].apic[2](1)
p552
(lp553
F35.505179723781609
atp554
a(Vh.TC5[4].apic[1](1)
p555
(lp556
F85.861825119633295
atp557
a(Vh.TC4[16].apic[2](1)
p558
(lp559
F105.95320923513222
atp560
a(Vh.MC5[12].apic[2](1)
p561
(lp562
F445.01747661893302
atp563
a(Vh.TC5[4].apic[1](1)
p564
(lp565
F445.27358098110182
atp566
a(Vh.TC4[16].apic[2](1)
p567
(lp568
F447.2826610617393
atp569
a(Vh.MC5[12].apic[2](1)
p570
(lp571
F1065.1427644280532
aF1069.6440100445782
aF1074.7483131889674
atp572
a(Vh.TC5[4].apic[1](1)
p573
(lp574
F1058.3920006365092
aF1063.7921829249058
aF1086.2727883071125
atp575
a(Vh.TC4[16].apic[2](1)
p576
(lp577
F1048.3366351932141
aF1079.7327206541881
aF1109.0528840989568
atp578
a(Vh.MC5[12].apic[2](1)
p579
(lp580
F1417.0652722863274
aF1479.7829246408282
aF1481.8625601841004
aF1502.5698885118945
atp581
a(Vh.TC5[4].apic[1](1)
p582
(lp583
F1433.3814631489549
aF1440.0213827449425
aF1450.0788642633834
aF1481.9483748594457
atp584
a(Vh.TC4[16].apic[2](1)
p585
(lp586
F1437.7862969366877
aF1446.4874625696086
aF1456.6752978472598
aF1478.7658704943572
atp587
a(Vh.MC5[12].apic[2](1)
p588
(lp589
F306.8358073478388
atp590
a(Vh.TC5[4].apic[1](1)
p591
(lp592
F281.02871411577991
atp593
a(Vh.TC4[16].apic[2](1)
p594
(lp595
F232.46415612049344
atp596
a(Vh.MC5[12].apic[2](1)
p597
(lp598
F668.01944644110108
aF672.24993604972406
atp599
a(Vh.TC5[4].apic[1](1)
p600
(lp601
F656.75258020997001
aF667.38485346738014
atp602
a(Vh.TC4[16].apic[2](1)
p603
(lp604
F659.53294162362602
aF723.44729868949901
atp605
a(Vh.MC5[12].apic[2](1)
p606
(lp607
F1664.0763890945357
aF1676.3093108786504
aF1695.2866077503734
aF1704.1161901899693
atp608
a(Vh.TC5[4].apic[1](1)
p609
(lp610
F1657.0231830738405
aF1698.2506421406331
aF1713.4565166620166
atp611
a(Vh.TC4[16].apic[2](1)
p612
(lp613
F1653.3629124112824
aF1667.069173026912
aF1687.9620410839332
aF1701.5634220172708
atp614
a(Vh.MC5[12].apic[2](1)
p615
(lp616
F1227.4116069733243
aF1274.9576186832653
aF1286.8618749413715
atp617
a(Vh.TC5[4].apic[1](1)
p618
(lp619
F1233.9000960110357
aF1289.3851622012862
aF1296.4966855365883
atp620
a(Vh.TC4[16].apic[2](1)
p621
(lp622
F1251.1423742420673
aF1254.8748076167542
aF1277.782496961792
atp623
a(Vh.MC5[12].apic[2](1)
p624
(ltp625
a(Vh.TC5[4].apic[1](1)
p626
(ltp627
a(Vh.TC4[16].apic[2](1)
p628
(ltp629
a(Vh.MC5[12].apic[2](1)
p630
(lp631
F819.28729638520213
aF906.35202508768839
atp632
a(Vh.TC5[4].apic[1](1)
p633
(lp634
F860.51492772324184
aF870.96741743508971
atp635
a(Vh.TC4[16].apic[2](1)
p636
(lp637
F845.65674388359935
aF878.53204926062881
atp638
a(Vh.MC4[2].apic[3](1)
p639
(lp640
F39.163531400347679
atp641
a(Vh.TC5[2].apic[1](1)
p642
(lp643
F83.536586676412199
atp644
a(Vh.TC5[18].apic[1](1)
p645
(lp646
F65.292874931572101
atp647
a(Vh.MC4[2].apic[3](1)
p648
(lp649
F476.10957890940551
atp650
a(Vh.TC5[2].apic[1](1)
p651
(lp652
F423.17386530431946
atp653
a(Vh.TC5[18].apic[1](1)
p654
(lp655
F474.82601852952621
atp656
a(Vh.MC4[2].apic[3](1)
p657
(lp658
F1030.0322427785504
aF1103.708228823557
aF1112.2867861194613
atp659
a(Vh.TC5[2].apic[1](1)
p660
(lp661
F1026.1848372038321
aF1076.2299930460522
aF1091.8921817877808
atp662
a(Vh.TC5[18].apic[1](1)
p663
(lp664
F1027.6097806022669
aF1052.3640670611915
aF1055.2883852728412
atp665
a(Vh.MC4[2].apic[3](1)
p666
(lp667
F1412.963681818718
aF1446.8001639342203
aF1452.1052065365604
aF1462.588697432461
atp668
a(Vh.TC5[2].apic[1](1)
p669
(lp670
F1433.4300334750417
aF1452.1529557877564
aF1455.8263013102753
aF1456.8333106957518
atp671
a(Vh.TC5[18].apic[1](1)
p672
(lp673
F1468.1009182420494
aF1479.9343263540468
aF1486.7362637523051
aF1486.9118024505474
atp674
a(Vh.MC4[2].apic[3](1)
p675
(lp676
F228.50558017399757
atp677
a(Vh.TC5[2].apic[1](1)
p678
(lp679
F252.49681370970055
atp680
a(Vh.TC5[18].apic[1](1)
p681
(lp682
F261.27374597603614
atp683
a(Vh.MC4[2].apic[3](1)
p684
(lp685
F635.98694448915865
aF656.82203644437129
atp686
a(Vh.TC5[2].apic[1](1)
p687
(lp688
F647.87380957168
aF702.31920083480998
atp689
a(Vh.TC5[18].apic[1](1)
p690
(lp691
F656.56906307417967
aF659.50225679547884
atp692
a(Vh.MC4[2].apic[3](1)
p693
(lp694
F1628.3598330820332
aF1652.5436031570162
aF1671.5586913286024
aF1673.0989346852357
atp695
a(Vh.TC5[2].apic[1](1)
p696
(lp697
F1657.956336535741
aF1672.1655527899054
aF1681.9170863483089
aF1691.5080285224069
atp698
a(Vh.TC5[18].apic[1](1)
p699
(lp700
F1645.8766022746834
aF1646.7142338231013
aF1671.1600436735077
aF1686.7947786820403
atp701
a(Vh.MC4[2].apic[3](1)
p702
(lp703
F1222.6363710563835
aF1236.8677988878792
aF1277.5183436203349
atp704
a(Vh.TC5[2].apic[1](1)
p705
(lp706
F1245.8005759539051
aF1252.0794234390164
aF1283.3179523345821
atp707
a(Vh.TC5[18].apic[1](1)
p708
(lp709
F1254.243952043691
aF1269.4465531915366
aF1282.7157015158132
atp710
a(Vh.MC4[2].apic[3](1)
p711
(ltp712
a(Vh.TC5[2].apic[1](1)
p713
(ltp714
a(Vh.TC5[18].apic[1](1)
p715
(ltp716
a(Vh.MC4[2].apic[3](1)
p717
(lp718
F851.24849483906326
aF890.35586178879987
atp719
a(Vh.TC5[2].apic[1](1)
p720
(lp721
F855.68289079960755
aF878.40678642644434
atp722
a(Vh.TC5[18].apic[1](1)
p723
(lp724
F872.98194228731438
aF873.6236581882805
atp725
a(Vh.TC4[0].apic[2](1)
p726
(lp727
F72.524381315762142
atp728
a(Vh.TC4[0].apic[2](1)
p729
(lp730
F503.26521815131531
atp731
a(Vh.TC4[0].apic[2](1)
p732
(lp733
F1024.0127803928822
aF1053.2851773091938
aF1055.4527281574483
atp734
a(Vh.TC4[0].apic[2](1)
p735
(lp736
F1425.4586542932943
aF1463.9426829419044
aF1472.4330568021778
aF1474.0176804382486
atp737
a(Vh.TC4[0].apic[2](1)
p738
(lp739
F231.33913665282662
atp740
a(Vh.TC4[0].apic[2](1)
p741
(lp742
F687.37430882778392
aF701.93075690688363
atp743
a(Vh.TC4[0].apic[2](1)
p744
(lp745
F1645.3454133027888
aF1655.2754244285691
aF1656.4590762896335
aF1701.7082867573538
atp746
a(Vh.TC4[0].apic[2](1)
p747
(lp748
F1236.9914559085064
aF1243.7068670748058
aF1244.5710737309555
atp749
a(Vh.TC4[0].apic[2](1)
p750
(ltp751
a(Vh.TC4[0].apic[2](1)
p752
(lp753
F858.08476311962374
aF869.43668904932031
atp754
a(Vh.TC4[8].apic[2](1)
p755
(lp756
F82.572626107365281
atp757
a(Vh.TC4[8].apic[2](1)
p758
(lp759
F461.19412224329437
atp760
a(Vh.TC4[8].apic[2](1)
p761
(lp762
F1029.6139192797591
aF1042.1034677314697
aF1044.3526890154885
atp763
a(Vh.TC4[8].apic[2](1)
p764
(lp765
F1473.3604662135483
aF1484.210111854891
aF1487.4643954483415
atp766
a(Vh.TC4[8].apic[2](1)
p767
(lp768
F278.92100280630126
atp769
a(Vh.TC4[8].apic[2](1)
p770
(lp771
F619.74745062706597
aF700.05097143346688
atp772
a(Vh.TC4[8].apic[2](1)
p773
(lp774
F1646.9260917647284
aF1651.3023895337651
aF1651.4329478472423
aF1675.8788420954202
atp775
a(Vh.TC4[8].apic[2](1)
p776
(lp777
F1250.4192124749291
aF1254.2043025896808
aF1264.9240379469331
atp778
a(Vh.TC4[8].apic[2](1)
p779
(ltp780
a(Vh.TC4[8].apic[2](1)
p781
(lp782
F840.41144647393583
aF865.04479470815784
atp783
a(Vh.TC3[0].apic[2](1)
p784
(lp785
F48.589472529418231
atp786
a(Vh.TC3[6].apic[2](1)
p787
(lp788
F73.459339951566619
atp789
a(Vh.TC4[14].apic[2](1)
p790
(lp791
F77.845769634577195
atp792
a(Vh.TC3[0].apic[2](1)
p793
(lp794
F442.15213359152284
atp795
a(Vh.TC3[6].apic[2](1)
p796
(ltp797
a(Vh.TC4[14].apic[2](1)
p798
(lp799
F443.21099582132246
atp800
a(Vh.TC3[0].apic[2](1)
p801
(lp802
F1032.8050976104128
aF1035.5860298220391
aF1096.1282500762863
atp803
a(Vh.TC3[6].apic[2](1)
p804
(lp805
F1006.7565094728764
aF1053.4660454785355
aF1067.9745585887079
atp806
a(Vh.TC4[14].apic[2](1)
p807
(lp808
F1051.2583283817323
aF1073.8471998027533
aF1084.7873158354303
atp809
a(Vh.TC3[0].apic[2](1)
p810
(lp811
F1421.2247326690597
aF1435.3297453180646
aF1447.3040944091747
aF1475.7062284116807
atp812
a(Vh.TC3[6].apic[2](1)
p813
(lp814
F1437.339118620451
aF1440.0171239215149
aF1448.5987142785691
aF1507.7277831914405
atp815
a(Vh.TC4[14].apic[2](1)
p816
(lp817
F1461.1434343511432
aF1466.4582612151867
aF1475.9220125915404
aF1501.6979389706316
atp818
a(Vh.TC3[0].apic[2](1)
p819
(lp820
F223.22026541368911
atp821
a(Vh.TC3[6].apic[2](1)
p822
(lp823
F252.38290393265461
atp824
a(Vh.TC4[14].apic[2](1)
p825
(lp826
F264.40766889340227
atp827
a(Vh.TC3[0].apic[2](1)
p828
(lp829
F650.58097466085144
aF678.70599578071744
atp830
a(Vh.TC3[6].apic[2](1)
p831
(lp832
F640.65252409441973
aF685.78517415869169
atp833
a(Vh.TC4[14].apic[2](1)
p834
(lp835
F659.45045747441714
aF663.75581517245314
atp836
a(Vh.TC3[0].apic[2](1)
p837
(lp838
F1664.9504100599227
aF1670.655506180379
aF1670.977146863843
aF1690.3579744936203
atp839
a(Vh.TC3[6].apic[2](1)
p840
(lp841
F1616.3595362522221
aF1656.6566663111814
aF1669.9632133993384
aF1685.2969793325653
atp842
a(Vh.TC4[14].apic[2](1)
p843
(lp844
F1655.1420940730043
aF1662.90545296204
aF1671.5646468287084
aF1684.3215842254619
atp845
a(Vh.TC3[0].apic[2](1)
p846
(lp847
F1263.9574694435021
aF1285.9116697149259
aF1311.8533533066031
atp848
a(Vh.TC3[6].apic[2](1)
p849
(lp850
F1250.4392848998552
aF1263.4466253177304
aF1268.7784113453847
atp851
a(Vh.TC4[14].apic[2](1)
p852
(lp853
F1243.6833916266448
aF1271.2794608700417
aF1317.6949833724436
atp854
a(Vh.TC3[0].apic[2](1)
p855
(ltp856
a(Vh.TC3[6].apic[2](1)
p857
(ltp858
a(Vh.TC4[14].apic[2](1)
p859
(ltp860
a(Vh.TC3[0].apic[2](1)
p861
(lp862
F864.68072520674639
aF899.81219826366271
atp863
a(Vh.TC3[6].apic[2](1)
p864
(lp865
F861.24974317760973
aF909.9741609704123
atp866
a(Vh.TC4[14].apic[2](1)
p867
(lp868
F863.75707388306421
aF911.30995861812687
atp869
a(Vh.TC5[8].apic[1](1)
p870
(lp871
F29.630164843120461
atp872
a(Vh.TC5[8].apic[1](1)
p873
(lp874
F515.40817880743248
atp875
a(Vh.TC5[8].apic[1](1)
p876
(lp877
F1050.1727501800374
aF1065.1180943760605
atp878
a(Vh.TC5[8].apic[1](1)
p879
(lp880
F1431.4035011346832
aF1441.5358401034737
aF1463.3711774644703
aF1481.1639897963364
atp881
a(Vh.TC5[8].apic[1](1)
p882
(lp883
F248.46929979473731
atp884
a(Vh.TC5[8].apic[1](1)
p885
(lp886
F627.38436583275404
aF642.13682362793554
atp887
a(Vh.TC5[8].apic[1](1)
p888
(lp889
F1644.7053303003747
aF1658.5692040213655
aF1690.5602543641714
aF1704.6050221672483
atp890
a(Vh.TC5[8].apic[1](1)
p891
(lp892
F1252.113531597776
aF1257.8524561562497
aF1281.6035153987925
atp893
a(Vh.TC5[8].apic[1](1)
p894
(ltp895
a(Vh.TC5[8].apic[1](1)
p896
(lp897
F839.43925262370772
aF878.50217206724597
atp898
a(Vh.TC3[4].apic[2](1)
p899
(lp900
F26.722935918136415
atp901
a(Vh.TC5[14].apic[1](1)
p902
(lp903
F80.439374366284056
atp904
a(Vh.TC3[4].apic[2](1)
p905
(lp906
F454.4818021384844
atp907
a(Vh.TC5[14].apic[1](1)
p908
(lp909
F484.69903358916315
atp910
a(Vh.TC3[4].apic[2](1)
p911
(lp912
F1047.9334046325341
aF1052.6232124194942
aF1104.4615871339572
atp913
a(Vh.TC5[14].apic[1](1)
p914
(lp915
F1023.5644584889445
aF1061.1363848230553
aF1105.6955602061475
atp916
a(Vh.TC3[4].apic[2](1)
p917
(lp918
F1420.8051910528395
aF1437.8777094723371
aF1448.1393037444725
aF1451.1418328722873
atp919
a(Vh.TC5[14].apic[1](1)
p920
(lp921
F1451.9726061084182
aF1463.0550134616144
aF1485.5660067466831
aF1498.6207364491231
atp922
a(Vh.TC3[4].apic[2](1)
p923
(lp924
F285.34694447690197
atp925
a(Vh.TC5[14].apic[1](1)
p926
(lp927
F236.4799755060115
atp928
a(Vh.TC3[4].apic[2](1)
p929
(lp930
F677.18194095330728
aF678.7276089024167
atp931
a(Vh.TC5[14].apic[1](1)
p932
(lp933
F669.13181880390664
aF686.28656858983425
atp934
a(Vh.TC3[4].apic[2](1)
p935
(lp936
F1681.7073185430486
aF1683.6562047827365
aF1684.84676577048
aF1705.5070777325259
atp937
a(Vh.TC5[14].apic[1](1)
p938
(lp939
F1639.6436687695702
aF1647.1014166463594
aF1659.9359451696471
aF1682.9685601851095
atp940
a(Vh.TC3[4].apic[2](1)
p941
(lp942
F1253.1266161614899
aF1279.819995211511
aF1280.1869220744793
atp943
a(Vh.TC5[14].apic[1](1)
p944
(lp945
F1249.0231683007682
aF1269.5613375999269
aF1275.7452567177966
atp946
a(Vh.TC3[4].apic[2](1)
p947
(ltp948
a(Vh.TC5[14].apic[1](1)
p949
(ltp950
a(Vh.TC3[4].apic[2](1)
p951
(lp952
F832.76106132579719
aF839.25339279134676
atp953
a(Vh.TC5[14].apic[1](1)
p954
(lp955
F861.23807396902635
aF887.75681920074953
atp956
a(Vh.TC4[2].apic[2](1)
p957
(lp958
F49.073588680527116
atp959
a(Vh.TC4[2].apic[2](1)
p960
(lp961
F424.60362163358934
atp962
a(Vh.TC4[2].apic[2](1)
p963
(lp964
F1011.8617159555524
aF1069.7148754904579
aF1078.9069055185832
atp965
a(Vh.TC4[2].apic[2](1)
p966
(lp967
F1420.8234802988843
aF1438.5329591151742
aF1462.9950417773459
aF1483.319995999452
atp968
a(Vh.TC4[2].apic[2](1)
p969
(lp970
F268.79384658588992
atp971
a(Vh.TC4[2].apic[2](1)
p972
(lp973
F650.1860263984106
aF674.3384556906974
atp974
a(Vh.TC4[2].apic[2](1)
p975
(lp976
F1622.0702522051836
aF1645.0861136635037
aF1674.0715582561045
aF1674.5953477070022
atp977
a(Vh.TC4[2].apic[2](1)
p978
(lp979
F1236.1111061949405
aF1258.7299412771013
aF1287.1821355572474
atp980
a(Vh.TC4[2].apic[2](1)
p981
(ltp982
a(Vh.TC4[2].apic[2](1)
p983
(lp984
F874.4435424507484
aF877.34475230041915
atp985
a.