(lp1
(Vh.MC5[14].apic[2](1)
p2
(lp3
F102.69044751201916
atp4
a(Vh.TC4[6].apic[2](1)
p5
(lp6
F34.369260448906019
atp7
a(Vh.MC5[14].apic[2](1)
p8
(lp9
F291.91952284306041
aF315.63604647318101
atp10
a(Vh.TC4[6].apic[2](1)
p11
(lp12
F266.90030976858134
aF300.59731203826902
atp13
a(Vh.MC5[14].apic[2](1)
p14
(lp15
F517.93655236314396
aF536.2137968317794
atp16
a(Vh.TC4[6].apic[2](1)
p17
(lp18
F441.77931815430009
aF478.72830891803289
atp19
a(Vh.MC5[14].apic[2](1)
p20
(lp21
F696.76247903509011
aF703.95243788343487
atp22
a(Vh.TC4[6].apic[2](1)
p23
(lp24
F650.52730474960458
aF654.39808821999077
atp25
a(Vh.TC5[6].apic[1](1)
p26
(lp27
F84.703029332774747
atp28
a(Vh.MC4[0].apic[3](1)
p29
(lp30
F73.452630291606667
atp31
a(Vh.TC5[6].apic[1](1)
p32
(lp33
F273.3016678340303
aF290.11071093591971
atp34
a(Vh.MC4[0].apic[3](1)
p35
(lp36
F284.17961910422798
aF314.77316849831755
atp37
a(Vh.TC5[6].apic[1](1)
p38
(lp39
F474.05887760704047
aF499.28143826071994
atp40
a(Vh.MC4[0].apic[3](1)
p41
(lp42
F493.41196063892215
aF552.34217090998709
atp43
a(Vh.TC5[6].apic[1](1)
p44
(lp45
F629.13542296540982
aF701.5838972710385
atp46
a(Vh.MC4[0].apic[3](1)
p47
(lp48
F675.78853210473414
aF691.70705730893599
atp49
a(Vh.TC4[12].apic[2](1)
p50
(lp51
F97.712207606883709
atp52
a(Vh.MC5[0].apic[2](1)
p53
(lp54
F89.22943339150649
atp55
a(Vh.TC5[20].apic[1](1)
p56
(lp57
F42.267552812844563
atp58
a(Vh.TC4[12].apic[2](1)
p59
(lp60
F266.86637598021565
aF287.72872815853378
atp61
a(Vh.MC5[0].apic[2](1)
p62
(lp63
F327.80516731788651
aF331.55657511645683
atp64
a(Vh.TC5[20].apic[1](1)
p65
(lp66
F231.26173199219375
aF269.43428156992132
atp67
a(Vh.TC4[12].apic[2](1)
p68
(lp69
F460.19031732372645
aF476.79041919139814
atp70
a(Vh.MC5[0].apic[2](1)
p71
(lp72
F486.94573655764015
aF546.9595104729899
atp73
a(Vh.TC5[20].apic[1](1)
p74
(lp75
F437.66683952898819
aF451.83553897045732
atp76
a(Vh.TC4[12].apic[2](1)
p77
(lp78
F684.09653128073614
aF685.06238450196042
atp79
a(Vh.MC5[0].apic[2](1)
p80
(lp81
F678.25587668498508
aF702.9228899563833
atp82
a(Vh.TC5[20].apic[1](1)
p83
(lp84
F622.97818436375007
aF674.88181921377611
atp85
a(Vh.MC5[2].apic[2](1)
p86
(lp87
F124.10156958617551
atp88
a(Vh.TC4[10].apic[2](1)
p89
(lp90
F65.92080796823906
atp91
a(Vh.MC5[2].apic[2](1)
p92
(lp93
F331.57663354723371
aF354.18656313294667
atp94
a(Vh.TC4[10].apic[2](1)
p95
(lp96
F210.69432565860362
aF275.14225279857885
atp97
a(Vh.MC5[2].apic[2](1)
p98
(lp99
F502.3338645743865
aF551.92897672751542
atp100
a(Vh.TC4[10].apic[2](1)
p101
(lp102
F447.79690551339303
aF513.15450481735206
atp103
a(Vh.MC5[2].apic[2](1)
p104
(lp105
F679.68974586773152
aF691.35731007255026
atp106
a(Vh.TC4[10].apic[2](1)
p107
(lp108
F616.64993465157329
aF682.27479402272195
atp109
a(Vh.TC4[4].apic[2](1)
p110
(lp111
F41.67866836746488
atp112
a(Vh.MC5[4].apic[2](1)
p113
(lp114
F107.00539767408884
atp115
a(Vh.TC4[4].apic[2](1)
p116
(lp117
F228.35930889508791
aF247.09311318134485
atp118
a(Vh.MC5[4].apic[2](1)
p119
(lp120
F302.294100533902
aF350.54223402792729
atp121
a(Vh.TC4[4].apic[2](1)
p122
(lp123
F419.49031728935734
aF459.59859561063058
atp124
a(Vh.MC5[4].apic[2](1)
p125
(lp126
F504.10106001643521
aF516.96261871909019
atp127
a(Vh.TC4[4].apic[2](1)
p128
(lp129
F674.44875021738426
aF718.02452679436465
atp130
a(Vh.MC5[4].apic[2](1)
p131
(lp132
F669.44693352748595
aF684.99705156458049
atp133
a(Vh.MC5[6].apic[2](1)
p134
(lp135
F115.68360541586374
atp136
a(Vh.TC5[10].apic[1](1)
p137
(lp138
F67.457995359189141
atp139
a(Vh.MC5[6].apic[2](1)
p140
(lp141
F298.71459557915546
aF333.8777216544263
atp142
a(Vh.TC5[10].apic[1](1)
p143
(lp144
F294.78428958112312
aF302.36360328716756
atp145
a(Vh.MC5[6].apic[2](1)
p146
(lp147
F505.04190561863044
aF544.18454221564843
atp148
a(Vh.TC5[10].apic[1](1)
p149
(lp150
F447.0133064917037
aF470.24021185792105
atp151
a(Vh.MC5[6].apic[2](1)
p152
(lp153
F681.8238047674015
aF752.74568540522637
atp154
a(Vh.TC5[10].apic[1](1)
p155
(lp156
F667.05415465778242
aF670.65483347577583
atp157
a(Vh.MC5[8].apic[2](1)
p158
(lp159
F121.67519247269676
atp160
a(Vh.TC5[16].apic[1](1)
p161
(lp162
F77.814091527856391
atp163
a(Vh.TC5[0].apic[1](1)
p164
(lp165
F41.288548042906839
atp166
a(Vh.MC5[8].apic[2](1)
p167
(lp168
F287.71034287968854
aF309.42286908975001
atp169
a(Vh.TC5[16].apic[1](1)
p170
(lp171
F277.36096748959307
aF283.92758409832328
atp172
a(Vh.TC5[0].apic[1](1)
p173
(lp174
F263.52057206472836
aF306.37123133325116
atp175
a(Vh.MC5[8].apic[2](1)
p176
(lp177
F527.65301320466847
aF539.03867431298181
atp178
a(Vh.TC5[16].apic[1](1)
p179
(lp180
F460.5824145521953
aF484.59781823098405
atp181
a(Vh.TC5[0].apic[1](1)
p182
(lp183
F455.61736654598297
aF473.64319578449005
atp184
a(Vh.MC5[8].apic[2](1)
p185
(lp186
F715.05710356725479
aF739.7661794001416
atp187
a(Vh.TC5[16].apic[1](1)
p188
(lp189
F625.48228854314198
aF643.24398028536939
atp190
a(Vh.TC5[0].apic[1](1)
p191
(lp192
F678.410800267676
aF685.95243962415157
atp193
a(Vh.MC5[10].apic[2](1)
p194
(lp195
F99.943229512154886
atp196
a(Vh.TC3[2].apic[2](1)
p197
(lp198
F91.833423958700081
atp199
a(Vh.TC5[12].apic[1](1)
p200
(lp201
F64.868549980777559
atp202
a(Vh.MC5[10].apic[2](1)
p203
(lp204
F287.69001988862306
aF315.18925070947603
atp205
a(Vh.TC3[2].apic[2](1)
p206
(lp207
F239.1599111110722
aF283.53838300381346
atp208
a(Vh.TC5[12].apic[1](1)
p209
(lp210
F212.63270522612038
aF270.3217418611772
atp211
a(Vh.MC5[10].apic[2](1)
p212
(lp213
F506.97638713810744
aF536.17402150013731
atp214
a(Vh.TC3[2].apic[2](1)
p215
(lp216
F454.74454594127508
aF481.40441330500892
atp217
a(Vh.TC5[12].apic[1](1)
p218
(lp219
F452.10920858983076
aF480.17299076570515
atp220
a(Vh.MC5[10].apic[2](1)
p221
(lp222
F662.74397688277975
aF692.77612070585349
atp223
a(Vh.TC3[2].apic[2](1)
p224
(lp225
F655.09262145173682
aF678.98645856967994
atp226
a(Vh.TC5[12].apic[1](1)
p227
(lp228
F686.16565265313329
aF689.96927919016957
atp229
a(Vh.MC5[12].apic[2](1)
p230
(lp231
F85.505179723781609
atp232
a(Vh.TC5[4].apic[1](1)
p233
(lp234
F85.861825119633295
atp235
a(Vh.TC4[16].apic[2](1)
p236
(lp237
F105.95320923513222
atp238
a(Vh.MC5[12].apic[2](1)
p239
(lp240
F279.07672707124868
aF348.68124340263591
atp241
a(Vh.TC5[4].apic[1](1)
p242
(lp243
F275.88249966587307
aF311.87826737816715
atp244
a(Vh.TC4[16].apic[2](1)
p245
(lp246
F293.73152424296097
aF297.66781946218509
atp247
a(Vh.MC5[12].apic[2](1)
p248
(lp249
F464.68010699803568
aF509.55978156594284
atp250
a(Vh.TC5[4].apic[1](1)
p251
(lp252
F456.59302898966564
aF461.07964064726173
atp253
a(Vh.TC4[16].apic[2](1)
p254
(lp255
F445.58507017145507
aF466.6735679054766
atp256
a(Vh.MC5[12].apic[2](1)
p257
(lp258
F699.17384158839934
aF750.43965948266703
atp259
a(Vh.TC5[4].apic[1](1)
p260
(lp261
F656.64192034537587
aF664.88539110273086
atp262
a(Vh.TC4[16].apic[2](1)
p263
(lp264
F653.32766360974608
aF671.51959689703961
atp265
a(Vh.MC4[2].apic[3](1)
p266
(lp267
F89.163531400347679
atp268
a(Vh.TC5[2].apic[1](1)
p269
(lp270
F83.536586676412199
atp271
a(Vh.TC5[18].apic[1](1)
p272
(lp273
F65.292874931572101
atp274
a(Vh.MC4[2].apic[3](1)
p275
(lp276
F304.50620743531999
aF311.67786917456965
atp277
a(Vh.TC5[2].apic[1](1)
p278
(lp279
F250.43076084451189
aF293.71194354783921
atp280
a(Vh.TC5[18].apic[1](1)
p281
(lp282
F304.5638595934056
aF317.50562163261975
atp283
a(Vh.MC4[2].apic[3](1)
p284
(lp285
F494.01086184119657
aF548.51508824430039
atp286
a(Vh.TC5[2].apic[1](1)
p287
(lp288
F441.19173968357569
aF459.98064675023164
atp289
a(Vh.TC5[18].apic[1](1)
p290
(lp291
F439.04814383142349
aF492.42288133150322
atp292
a(Vh.MC4[2].apic[3](1)
p293
(lp294
F720.31271071973026
aF750.83131090005907
atp295
a(Vh.TC5[2].apic[1](1)
p296
(lp297
F642.13601551875911
aF651.24631386691306
atp298
a(Vh.TC5[18].apic[1](1)
p299
(lp300
F616.02497188173584
atp301
a(Vh.TC4[0].apic[2](1)
p302
(lp303
F72.524381315762142
atp304
a(Vh.TC4[0].apic[2](1)
p305
(lp306
F266.5653828390931
aF302.8100432689713
atp307
a(Vh.TC4[0].apic[2](1)
p308
(lp309
F460.23757448740713
aF480.62839989020443
atp310
a(Vh.TC4[0].apic[2](1)
p311
(lp312
F636.40857439901413
aF701.14038178334056
atp313
a(Vh.TC4[8].apic[2](1)
p314
(lp315
F82.572626107365281
atp316
a(Vh.TC4[8].apic[2](1)
p317
(lp318
F213.8829623618567
aF282.69928579886465
atp319
a(Vh.TC4[8].apic[2](1)
p320
(lp321
F456.59363131362431
aF505.23304275817895
atp322
a(Vh.TC4[8].apic[2](1)
p323
(lp324
F634.21528632309685
aF673.67270902143161
atp325
a(Vh.TC3[0].apic[2](1)
p326
(lp327
F48.589472529418231
atp328
a(Vh.TC3[6].apic[2](1)
p329
(lp330
F73.459339951566619
atp331
a(Vh.TC4[14].apic[2](1)
p332
(lp333
F77.845769634577195
atp334
a(Vh.TC3[0].apic[2](1)
p335
(lp336
F227.13082054887315
aF269.2840952100895
atp337
a(Vh.TC3[6].apic[2](1)
p338
(lp339
F237.56028426744655
aF276.74026305566798
atp340
a(Vh.TC4[14].apic[2](1)
p341
(lp342
F259.11189792626629
aF266.55516218928193
atp343
a(Vh.TC3[0].apic[2](1)
p344
(lp345
F456.09830722362125
aF468.18571040011335
atp346
a(Vh.TC3[6].apic[2](1)
p347
(lp348
F443.91657970978486
aF449.24840563634621
atp349
a(Vh.TC4[14].apic[2](1)
p350
(lp351
F460.49465392936833
aF511.12370366928434
atp352
a(Vh.TC3[0].apic[2](1)
p353
(lp354
F620.55348305465509
aF654.5518809915477
atp355
a(Vh.TC3[6].apic[2](1)
p356
(lp357
F617.33934654771872
aF654.68555278916813
atp358
a(Vh.TC4[14].apic[2](1)
p359
(lp360
F634.98213818733905
aF721.88858264690919
atp361
a(Vh.TC5[8].apic[1](1)
p362
(lp363
F29.630164843120461
atp364
a(Vh.TC5[8].apic[1](1)
p365
(lp366
F274.88910864097232
aF317.50723524352674
atp367
a(Vh.TC5[8].apic[1](1)
p368
(lp369
F423.28628688250296
aF483.54127861092172
atp370
a(Vh.TC5[8].apic[1](1)
p371
(lp372
F664.79510661212328
aF686.45292338899424
atp373
a(Vh.TC3[4].apic[2](1)
p374
(lp375
F26.722935918136415
atp376
a(Vh.TC5[14].apic[1](1)
p377
(lp378
F80.439374366284056
atp379
a(Vh.TC3[4].apic[2](1)
p380
(lp381
F250.34963354547085
aF274.42056353120984
atp382
a(Vh.TC5[14].apic[1](1)
p383
(lp384
F246.73744145417515
aF265.73712710503298
atp385
a(Vh.TC3[4].apic[2](1)
p386
(lp387
F456.47468498273304
aF485.57944397529207
atp388
a(Vh.TC5[14].apic[1](1)
p389
(lp390
F432.96341988884609
aF469.92391955228419
atp391
a(Vh.TC3[4].apic[2](1)
p392
(lp393
F659.58470682468101
aF669.9469246030269
atp394
a(Vh.TC5[14].apic[1](1)
p395
(lp396
F670.16553567362723
aF683.28773364391793
atp397
a(Vh.TC4[2].apic[2](1)
p398
(lp399
F49.073588680527116
atp400
a(Vh.TC4[2].apic[2](1)
p401
(lp402
F262.83743823770055
aF274.85714551271155
atp403
a(Vh.TC4[2].apic[2](1)
p404
(lp405
F455.39425274737619
aF473.17901655413652
atp406
a(Vh.TC4[2].apic[2](1)
p407
(lp408
F636.99134651145368
aF691.42056164894257
atp409
a.