(lp1
(Vh.MC4[0].apic[3](1)
p2
(lp3
F53.452630291606667
atp4
a(Vh.MC4[0].apic[3](1)
p5
(lp6
F868.23291780305715
aF889.15775870599134
atp7
a(Vh.MC4[0].apic[3](1)
p8
(lp9
F264.17961910422798
aF294.77316849831755
atp10
a(Vh.MC4[0].apic[3](1)
p11
(lp12
F473.41196063892215
aF532.34217090998709
atp13
a(Vh.MC4[0].apic[3](1)
p14
(lp15
F1074.7961081600477
aF1080.0414063090059
atp16
a(Vh.MC4[0].apic[3](1)
p17
(lp18
F655.78853210473414
aF671.70705730893599
atp19
a(Vh.MC5[0].apic[2](1)
p20
(lp21
F69.22943339150649
atp22
a(Vh.MC5[0].apic[2](1)
p23
(lp24
F893.91576469202971
aF899.33745650719868
atp25
a(Vh.MC5[0].apic[2](1)
p26
(lp27
F307.80516731788651
aF311.55657511645683
atp28
a(Vh.MC5[0].apic[2](1)
p29
(lp30
F466.94573655764015
aF526.9595104729899
atp31
a(Vh.MC5[0].apic[2](1)
p32
(lp33
F1080.745154480886
aF1114.8041204569072
atp34
a(Vh.MC5[0].apic[2](1)
p35
(lp36
F658.25587668498508
aF682.9228899563833
atp37
a(Vh.MC5[2].apic[2](1)
p38
(lp39
F104.10156958617551
atp40
a(Vh.MC5[2].apic[2](1)
p41
(lp42
F884.04986182089044
aF942.86040890178117
atp43
a(Vh.MC5[2].apic[2](1)
p44
(lp45
F311.57663354723371
aF334.18656313294667
atp46
a(Vh.MC5[2].apic[2](1)
p47
(lp48
F482.3338645743865
aF531.92897672751542
atp49
a(Vh.MC5[2].apic[2](1)
p50
(lp51
F1039.0306144201331
aF1070.1219548307245
atp52
a(Vh.MC5[2].apic[2](1)
p53
(lp54
F659.68974586773152
aF671.35731007255026
atp55
a(Vh.MC5[4].apic[2](1)
p56
(lp57
F87.00539767408884
atp58
a(Vh.MC5[4].apic[2](1)
p59
(lp60
F889.46876755364337
aF909.44905884357308
atp61
a(Vh.MC5[4].apic[2](1)
p62
(lp63
F282.294100533902
aF330.54223402792729
atp64
a(Vh.MC5[4].apic[2](1)
p65
(lp66
F484.10106001643521
aF496.96261871909019
atp67
a(Vh.MC5[4].apic[2](1)
p68
(lp69
F1040.2556569800131
aF1105.2233964683141
atp70
a(Vh.MC5[4].apic[2](1)
p71
(lp72
F649.44693352748595
aF664.99705156458049
atp73
a(Vh.MC5[6].apic[2](1)
p74
(lp75
F95.683605415863738
atp76
a(Vh.MC5[6].apic[2](1)
p77
(lp78
F894.87149830681926
aF896.7002770004641
atp79
a(Vh.MC5[6].apic[2](1)
p80
(lp81
F278.71459557915546
aF313.8777216544263
atp82
a(Vh.MC5[6].apic[2](1)
p83
(lp84
F485.04190561863044
aF524.18454221564843
atp85
a(Vh.MC5[6].apic[2](1)
p86
(lp87
F1096.4978733064038
aF1120.5905506490869
atp88
a(Vh.MC5[6].apic[2](1)
p89
(lp90
F661.8238047674015
aF732.74568540522637
atp91
a(Vh.TC4[2].apic[2](1)
p92
(lp93
F49.073588680527116
atp94
a(Vh.TC4[2].apic[2](1)
p95
(lp96
F874.4435424507484
aF877.34475230041915
atp97
a(Vh.TC4[2].apic[2](1)
p98
(lp99
F262.83743823770055
aF274.85714551271155
atp100
a(Vh.TC4[2].apic[2](1)
p101
(lp102
F455.39425274737619
aF473.17901655413652
atp103
a(Vh.TC4[2].apic[2](1)
p104
(lp105
F1058.4373548319022
aF1076.001009679152
atp106
a(Vh.TC4[2].apic[2](1)
p107
(lp108
F636.99134651145368
aF691.42056164894257
atp109
a(Vh.TC5[4].apic[1](1)
p110
(lp111
F85.861825119633295
atp112
a(Vh.TC5[4].apic[1](1)
p113
(lp114
F860.51492772324184
aF870.96741743508971
atp115
a(Vh.TC5[4].apic[1](1)
p116
(lp117
F275.88249966587307
aF311.87826737816715
atp118
a(Vh.TC5[4].apic[1](1)
p119
(lp120
F456.59302898966564
aF461.07964064726173
atp121
a(Vh.TC5[4].apic[1](1)
p122
(lp123
F1077.3409226663157
aF1087.824428057836
atp124
a(Vh.TC5[4].apic[1](1)
p125
(lp126
F656.64192034537587
aF664.88539110273086
atp127
a(Vh.TC5[6].apic[1](1)
p128
(lp129
F84.703029332774747
atp130
a(Vh.TC5[6].apic[1](1)
p131
(lp132
F860.5939909390371
aF864.092717190602
atp133
a(Vh.TC5[6].apic[1](1)
p134
(lp135
F273.3016678340303
aF290.11071093591971
atp136
a(Vh.TC5[6].apic[1](1)
p137
(lp138
F474.05887760704047
aF499.28143826071994
atp139
a(Vh.TC5[6].apic[1](1)
p140
(lp141
F1063.4314868318568
aF1074.8231561579785
atp142
a(Vh.TC5[6].apic[1](1)
p143
(lp144
F629.13542296540982
aF701.5838972710385
atp145
a(Vh.TC3[2].apic[2](1)
p146
(lp147
F91.833423958700081
atp148
a(Vh.TC3[2].apic[2](1)
p149
(lp150
F832.57473383931062
aF913.16700189525261
atp151
a(Vh.TC3[2].apic[2](1)
p152
(lp153
F239.1599111110722
aF283.53838300381346
atp154
a(Vh.TC3[2].apic[2](1)
p155
(lp156
F454.74454594127508
aF481.40441330500892
atp157
a(Vh.TC3[2].apic[2](1)
p158
(lp159
F1026.883603399406
aF1074.1528054546723
atp160
a(Vh.TC3[2].apic[2](1)
p161
(lp162
F655.09262145173682
aF678.98645856967994
atp163
a(Vh.TC5[0].apic[1](1)
p164
(lp165
F41.288548042906839
atp166
a(Vh.TC5[0].apic[1](1)
p167
(lp168
F850.16048975123033
aF877.20067951984981
atp169
a(Vh.TC5[0].apic[1](1)
p170
(lp171
F263.52057206472836
aF306.37123133325116
atp172
a(Vh.TC5[0].apic[1](1)
p173
(lp174
F455.61736654598297
aF473.64319578449005
atp175
a(Vh.TC5[0].apic[1](1)
p176
(lp177
F1048.041729425222
aF1100.3206570343236
atp178
a(Vh.TC5[0].apic[1](1)
p179
(lp180
F678.410800267676
aF685.95243962415157
atp181
a(Vh.TC4[6].apic[2](1)
p182
(lp183
F34.369260448906019
atp184
a(Vh.TC4[6].apic[2](1)
p185
(lp186
F859.89966592620158
aF907.73124103470309
atp187
a(Vh.TC4[6].apic[2](1)
p188
(lp189
F266.90030976858134
aF300.59731203826902
atp190
a(Vh.TC4[6].apic[2](1)
p191
(lp192
F441.77931815430009
aF478.72830891803289
atp193
a(Vh.TC4[6].apic[2](1)
p194
(lp195
F1049.8022380203436
aF1074.7216342546192
atp196
a(Vh.TC4[6].apic[2](1)
p197
(lp198
F650.52730474960458
aF654.39808821999077
atp199
a(Vh.TC5[2].apic[1](1)
p200
(lp201
F83.536586676412199
atp202
a(Vh.TC5[2].apic[1](1)
p203
(lp204
F855.68289079960755
aF878.40678642644434
atp205
a(Vh.TC5[2].apic[1](1)
p206
(lp207
F250.43076084451189
aF293.71194354783921
atp208
a(Vh.TC5[2].apic[1](1)
p209
(lp210
F441.19173968357569
aF459.98064675023164
atp211
a(Vh.TC5[2].apic[1](1)
p212
(lp213
F1053.843008632143
aF1060.1431846242133
atp214
a(Vh.TC5[2].apic[1](1)
p215
(lp216
F642.13601551875911
aF651.24631386691306
atp217
a(Vh.TC4[4].apic[2](1)
p218
(lp219
F41.67866836746488
atp220
a(Vh.TC4[4].apic[2](1)
p221
(lp222
F820.94998386144437
aF848.28967662279172
atp223
a(Vh.TC4[4].apic[2](1)
p224
(lp225
F228.35930889508791
aF247.09311318134485
atp226
a(Vh.TC4[4].apic[2](1)
p227
(lp228
F419.49031728935734
aF459.59859561063058
atp229
a(Vh.TC4[4].apic[2](1)
p230
(lp231
F1053.2346420388701
aF1089.8526450150073
atp232
a(Vh.TC4[4].apic[2](1)
p233
(lp234
F674.44875021738426
aF718.02452679436465
atp235
a(Vh.TC4[0].apic[2](1)
p236
(lp237
F72.524381315762142
atp238
a(Vh.TC4[0].apic[2](1)
p239
(lp240
F858.08476311962374
aF869.43668904932031
atp241
a(Vh.TC4[0].apic[2](1)
p242
(lp243
F266.5653828390931
aF302.8100432689713
atp244
a(Vh.TC4[0].apic[2](1)
p245
(lp246
F460.23757448740713
aF480.62839989020443
atp247
a(Vh.TC4[0].apic[2](1)
p248
(lp249
F1033.0430155022107
aF1056.9119007205329
atp250
a(Vh.TC4[0].apic[2](1)
p251
(lp252
F636.40857439901413
aF701.14038178334056
atp253
a(Vh.TC3[0].apic[2](1)
p254
(lp255
F48.589472529418231
atp256
a(Vh.TC3[0].apic[2](1)
p257
(lp258
F864.68072520674639
aF899.81219826366271
atp259
a(Vh.TC3[0].apic[2](1)
p260
(lp261
F227.13082054887315
aF269.2840952100895
atp262
a(Vh.TC3[0].apic[2](1)
p263
(lp264
F456.09830722362125
aF468.18571040011335
atp265
a(Vh.TC3[0].apic[2](1)
p266
(lp267
F1052.4640720567568
aF1119.9540987468768
atp268
a(Vh.TC3[0].apic[2](1)
p269
(lp270
F620.55348305465509
aF654.5518809915477
atp271
a.