(lp1
(Vh.MC4[0].apic[3](1)
p2
(lp3
F73.452630291606667
atp4
a(Vh.MC4[0].apic[3](1)
p5
(lp6
F284.17961910422798
aF314.77316849831755
atp7
a(Vh.MC4[0].apic[3](1)
p8
(lp9
F493.41196063892215
aF552.34217090998709
atp10
a(Vh.MC4[0].apic[3](1)
p11
(lp12
F675.78853210473414
aF691.70705730893599
atp13
a(Vh.MC5[0].apic[2](1)
p14
(lp15
F89.22943339150649
atp16
a(Vh.MC5[0].apic[2](1)
p17
(lp18
F327.80516731788651
aF331.55657511645683
atp19
a(Vh.MC5[0].apic[2](1)
p20
(lp21
F486.94573655764015
aF546.9595104729899
atp22
a(Vh.MC5[0].apic[2](1)
p23
(lp24
F678.25587668498508
aF702.9228899563833
atp25
a(Vh.MC5[2].apic[2](1)
p26
(lp27
F124.10156958617551
atp28
a(Vh.MC5[2].apic[2](1)
p29
(lp30
F331.57663354723371
aF354.18656313294667
atp31
a(Vh.MC5[2].apic[2](1)
p32
(lp33
F502.3338645743865
aF551.92897672751542
atp34
a(Vh.MC5[2].apic[2](1)
p35
(lp36
F679.68974586773152
aF691.35731007255026
atp37
a(Vh.MC5[4].apic[2](1)
p38
(lp39
F107.00539767408884
atp40
a(Vh.MC5[4].apic[2](1)
p41
(lp42
F302.294100533902
aF350.54223402792729
atp43
a(Vh.MC5[4].apic[2](1)
p44
(lp45
F504.10106001643521
aF516.96261871909019
atp46
a(Vh.MC5[4].apic[2](1)
p47
(lp48
F669.44693352748595
aF684.99705156458049
atp49
a(Vh.MC5[6].apic[2](1)
p50
(lp51
F115.68360541586374
atp52
a(Vh.MC5[6].apic[2](1)
p53
(lp54
F298.71459557915546
aF333.8777216544263
atp55
a(Vh.MC5[6].apic[2](1)
p56
(lp57
F505.04190561863044
aF544.18454221564843
atp58
a(Vh.MC5[6].apic[2](1)
p59
(lp60
F681.8238047674015
aF752.74568540522637
atp61
a(Vh.TC4[2].apic[2](1)
p62
(lp63
F49.073588680527116
atp64
a(Vh.TC4[2].apic[2](1)
p65
(lp66
F262.83743823770055
aF274.85714551271155
atp67
a(Vh.TC4[2].apic[2](1)
p68
(lp69
F455.39425274737619
aF473.17901655413652
atp70
a(Vh.TC4[2].apic[2](1)
p71
(lp72
F636.99134651145368
aF691.42056164894257
atp73
a(Vh.TC5[4].apic[1](1)
p74
(lp75
F85.861825119633295
atp76
a(Vh.TC5[4].apic[1](1)
p77
(lp78
F275.88249966587307
aF311.87826737816715
atp79
a(Vh.TC5[4].apic[1](1)
p80
(lp81
F456.59302898966564
aF461.07964064726173
atp82
a(Vh.TC5[4].apic[1](1)
p83
(lp84
F656.64192034537587
aF664.88539110273086
atp85
a(Vh.TC5[6].apic[1](1)
p86
(lp87
F84.703029332774747
atp88
a(Vh.TC5[6].apic[1](1)
p89
(lp90
F273.3016678340303
aF290.11071093591971
atp91
a(Vh.TC5[6].apic[1](1)
p92
(lp93
F474.05887760704047
aF499.28143826071994
atp94
a(Vh.TC5[6].apic[1](1)
p95
(lp96
F629.13542296540982
aF701.5838972710385
atp97
a(Vh.TC3[2].apic[2](1)
p98
(lp99
F91.833423958700081
atp100
a(Vh.TC3[2].apic[2](1)
p101
(lp102
F239.1599111110722
aF283.53838300381346
atp103
a(Vh.TC3[2].apic[2](1)
p104
(lp105
F454.74454594127508
aF481.40441330500892
atp106
a(Vh.TC3[2].apic[2](1)
p107
(lp108
F655.09262145173682
aF678.98645856967994
atp109
a(Vh.TC5[0].apic[1](1)
p110
(lp111
F41.288548042906839
atp112
a(Vh.TC5[0].apic[1](1)
p113
(lp114
F263.52057206472836
aF306.37123133325116
atp115
a(Vh.TC5[0].apic[1](1)
p116
(lp117
F455.61736654598297
aF473.64319578449005
atp118
a(Vh.TC5[0].apic[1](1)
p119
(lp120
F678.410800267676
aF685.95243962415157
atp121
a(Vh.TC4[6].apic[2](1)
p122
(lp123
F34.369260448906019
atp124
a(Vh.TC4[6].apic[2](1)
p125
(lp126
F266.90030976858134
aF300.59731203826902
atp127
a(Vh.TC4[6].apic[2](1)
p128
(lp129
F441.77931815430009
aF478.72830891803289
atp130
a(Vh.TC4[6].apic[2](1)
p131
(lp132
F650.52730474960458
aF654.39808821999077
atp133
a(Vh.TC5[2].apic[1](1)
p134
(lp135
F83.536586676412199
atp136
a(Vh.TC5[2].apic[1](1)
p137
(lp138
F250.43076084451189
aF293.71194354783921
atp139
a(Vh.TC5[2].apic[1](1)
p140
(lp141
F441.19173968357569
aF459.98064675023164
atp142
a(Vh.TC5[2].apic[1](1)
p143
(lp144
F642.13601551875911
aF651.24631386691306
atp145
a(Vh.TC4[4].apic[2](1)
p146
(lp147
F41.67866836746488
atp148
a(Vh.TC4[4].apic[2](1)
p149
(lp150
F228.35930889508791
aF247.09311318134485
atp151
a(Vh.TC4[4].apic[2](1)
p152
(lp153
F419.49031728935734
aF459.59859561063058
atp154
a(Vh.TC4[4].apic[2](1)
p155
(lp156
F674.44875021738426
aF718.02452679436465
atp157
a(Vh.TC4[0].apic[2](1)
p158
(lp159
F72.524381315762142
atp160
a(Vh.TC4[0].apic[2](1)
p161
(lp162
F266.5653828390931
aF302.8100432689713
atp163
a(Vh.TC4[0].apic[2](1)
p164
(lp165
F460.23757448740713
aF480.62839989020443
atp166
a(Vh.TC4[0].apic[2](1)
p167
(lp168
F636.40857439901413
aF701.14038178334056
atp169
a(Vh.TC3[0].apic[2](1)
p170
(lp171
F48.589472529418231
atp172
a(Vh.TC3[0].apic[2](1)
p173
(lp174
F227.13082054887315
aF269.2840952100895
atp175
a(Vh.TC3[0].apic[2](1)
p176
(lp177
F456.09830722362125
aF468.18571040011335
atp178
a(Vh.TC3[0].apic[2](1)
p179
(lp180
F620.55348305465509
aF654.5518809915477
atp181
a.