(lp1
(Vh.MC5[14].apic[2](1)
p2
(lp3
F52.690447512019162
atp4
a(Vh.TC4[6].apic[2](1)
p5
(lp6
F34.369260448906019
atp7
a(Vh.MC5[14].apic[2](1)
p8
(lp9
F429.52111803942626
aF440.47121581130546
aF452.11020948685882
atp10
a(Vh.TC4[6].apic[2](1)
p11
(lp12
F418.61134433375338
aF445.04706392155089
aF447.41583130795749
atp13
a(Vh.MC5[14].apic[2](1)
p14
(lp15
F1035.5323732000527
aF1048.7770816095951
atp16
a(Vh.TC4[6].apic[2](1)
p17
(lp18
F1075.6174242691159
aF1083.129292318205
atp19
a(Vh.MC5[14].apic[2](1)
p20
(lp21
F1476.9078776095771
aF1498.7555667453184
atp22
a(Vh.TC4[6].apic[2](1)
p23
(lp24
F1461.7769075478316
aF1473.908102415566
aF1487.1922000713023
atp25
a(Vh.MC5[14].apic[2](1)
p26
(lp27
F222.07073732175763
aF266.33362047261033
atp28
a(Vh.TC4[6].apic[2](1)
p29
(lp30
F256.7165400929722
aF261.03831757513547
atp31
a(Vh.MC5[14].apic[2](1)
p32
(lp33
F646.76247903509011
aF653.95243788343487
atp34
a(Vh.TC4[6].apic[2](1)
p35
(lp36
F650.52730474960458
aF654.39808821999077
atp37
a(Vh.MC5[14].apic[2](1)
p38
(lp39
F1633.5958031998468
aF1670.9546306118689
aF1686.9717613371201
atp40
a(Vh.TC4[6].apic[2](1)
p41
(lp42
F1650.5118946217488
aF1651.2782184442619
aF1682.4988691340361
atp43
a(Vh.MC5[14].apic[2](1)
p44
(lp45
F1239.8169784672425
aF1295.5236366443075
atp46
a(Vh.TC4[6].apic[2](1)
p47
(lp48
F1248.5111755764819
aF1263.4035143226829
atp49
a(Vh.MC5[14].apic[2](1)
p50
(ltp51
a(Vh.TC4[6].apic[2](1)
p52
(ltp53
a(Vh.MC5[14].apic[2](1)
p54
(lp55
F830.86629789697963
aF882.55144848817554
aF886.68201216993566
atp56
a(Vh.TC4[6].apic[2](1)
p57
(lp58
F871.75519225212156
aF881.51178587651839
aF889.34257456580417
atp59
a(Vh.TC5[6].apic[1](1)
p60
(lp61
F84.703029332774747
atp62
a(Vh.MC4[0].apic[3](1)
p63
(lp64
F23.452630291606667
atp65
a(Vh.TC5[6].apic[1](1)
p66
(lp67
F437.22964701266085
aF462.8944578508748
aF491.67950540020286
atp68
a(Vh.MC4[0].apic[3](1)
p69
(lp70
F411.94144587756108
aF440.38302959920412
aF463.30835310941148
atp71
a(Vh.TC5[6].apic[1](1)
p72
(lp73
F1024.4057476465778
aF1061.3701394974655
atp74
a(Vh.MC4[0].apic[3](1)
p75
(lp76
F1048.0062368829053
aF1074.0019000526945
atp77
a(Vh.TC5[6].apic[1](1)
p78
(lp79
F1439.1285623953231
aF1476.8028829648242
aF1494.2740943801709
atp80
a(Vh.MC4[0].apic[3](1)
p81
(lp82
F1443.8536077568783
aF1445.2634162468516
aF1451.3109325286982
atp83
a(Vh.TC5[6].apic[1](1)
p84
(lp85
F254.38144292759679
aF301.1355441614013
atp86
a(Vh.MC4[0].apic[3](1)
p87
(lp88
F246.73076225826307
aF271.23490288207734
atp89
a(Vh.TC5[6].apic[1](1)
p90
(lp91
F629.13542296540982
aF701.5838972710385
atp92
a(Vh.MC4[0].apic[3](1)
p93
(lp94
F625.78853210473414
aF641.70705730893599
atp95
a(Vh.TC5[6].apic[1](1)
p96
(lp97
F1614.1883018614833
aF1631.4061063385454
aF1667.9755744164133
atp98
a(Vh.MC4[0].apic[3](1)
p99
(lp100
F1693.6635086980602
aF1693.9778234007374
aF1694.646304995618
atp101
a(Vh.TC5[6].apic[1](1)
p102
(lp103
F1224.7430252390473
aF1281.0643560672338
atp104
a(Vh.MC4[0].apic[3](1)
p105
(lp106
F1261.9928786383591
aF1301.2242822281012
atp107
a(Vh.TC5[6].apic[1](1)
p108
(ltp109
a(Vh.MC4[0].apic[3](1)
p110
(ltp111
a(Vh.TC5[6].apic[1](1)
p112
(lp113
F826.59657363565907
aF858.65394947230948
aF867.25469730052464
atp114
a(Vh.MC4[0].apic[3](1)
p115
(lp116
F847.36649450592734
aF868.3149380377821
aF893.01770651235495
atp117
a(Vh.TC4[12].apic[2](1)
p118
(lp119
F97.712207606883709
atp120
a(Vh.MC5[0].apic[2](1)
p121
(lp122
F39.22943339150649
atp123
a(Vh.TC5[20].apic[1](1)
p124
(lp125
F42.267552812844563
atp126
a(Vh.TC4[12].apic[2](1)
p127
(lp128
F447.41824944056521
aF470.61472806865675
aF484.56543619747526
atp129
a(Vh.MC5[0].apic[2](1)
p130
(lp131
F480.18705437522652
aF491.72096315438472
aF502.99155582977124
atp132
a(Vh.TC5[20].apic[1](1)
p133
(lp134
F456.21054211806802
aF475.60345871701816
aF495.57933468104034
atp135
a(Vh.TC4[12].apic[2](1)
p136
(lp137
F1033.2243420565969
aF1049.9330543791225
atp138
a(Vh.MC5[0].apic[2](1)
p139
(lp140
F1027.9280196554907
aF1082.5739599811689
atp141
a(Vh.TC5[20].apic[1](1)
p142
(lp143
F1039.1080471518114
aF1088.0856536204794
atp144
a(Vh.TC4[12].apic[2](1)
p145
(lp146
F1431.0484891776121
aF1440.1776811680886
aF1505.9984430287748
atp147
a(Vh.MC5[0].apic[2](1)
p148
(lp149
F1433.5727308001619
aF1485.1606303687126
aF1521.7271897067153
atp150
a(Vh.TC5[20].apic[1](1)
p151
(lp152
F1437.2250061674988
aF1444.7614696014114
aF1491.0493287129491
atp153
a(Vh.TC4[12].apic[2](1)
p154
(lp155
F249.43717689416417
aF296.91660416470813
atp156
a(Vh.MC5[0].apic[2](1)
p157
(lp158
F274.8277287977017
aF286.82358489141524
atp159
a(Vh.TC5[20].apic[1](1)
p160
(lp161
F215.66129297235636
aF242.87118134098671
atp162
a(Vh.TC4[12].apic[2](1)
p163
(lp164
F684.09653128073614
aF685.06238450196042
atp165
a(Vh.MC5[0].apic[2](1)
p166
(lp167
F628.25587668498508
aF652.9228899563833
atp168
a(Vh.TC5[20].apic[1](1)
p169
(lp170
F622.97818436375007
aF674.88181921377611
atp171
a(Vh.TC4[12].apic[2](1)
p172
(lp173
F1657.1152210589034
aF1666.7096931357482
aF1682.4252330095392
atp174
a(Vh.MC5[0].apic[2](1)
p175
(lp176
F1639.5205175305773
aF1659.2349374687219
aF1706.1782645207577
atp177
a(Vh.TC5[20].apic[1](1)
p178
(lp179
F1637.4771162865018
aF1655.72943278618
aF1661.9659770492981
atp180
a(Vh.TC4[12].apic[2](1)
p181
(lp182
F1235.9821722855759
aF1297.413668542682
atp183
a(Vh.MC5[0].apic[2](1)
p184
(lp185
F1260.9110149421342
aF1265.7243979140828
atp186
a(Vh.TC5[20].apic[1](1)
p187
(lp188
F1281.8033311318329
aF1303.7668931089881
atp189
a(Vh.TC4[12].apic[2](1)
p190
(ltp191
a(Vh.MC5[0].apic[2](1)
p192
(ltp193
a(Vh.TC5[20].apic[1](1)
p194
(ltp195
a(Vh.TC4[12].apic[2](1)
p196
(lp197
F844.16003108264204
aF845.42355591354726
aF875.55548883793745
atp198
a(Vh.MC5[0].apic[2](1)
p199
(lp200
F861.53189475736792
aF878.57800852817252
aF889.55034437995494
atp201
a(Vh.TC5[20].apic[1](1)
p202
(lp203
F827.43824970251717
aF873.67300095799692
aF916.4749182004125
atp204
a(Vh.MC5[2].apic[2](1)
p205
(lp206
F74.101569586175515
atp207
a(Vh.TC4[10].apic[2](1)
p208
(lp209
F65.92080796823906
atp210
a(Vh.MC5[2].apic[2](1)
p211
(lp212
F446.37820209090364
aF451.63968983437917
aF474.45877270375286
atp213
a(Vh.TC4[10].apic[2](1)
p214
(lp215
F460.36659656202983
aF461.31033624430245
aF503.25798546478677
atp216
a(Vh.MC5[2].apic[2](1)
p217
(lp218
F1053.211775515427
aF1073.0324522044036
atp219
a(Vh.TC4[10].apic[2](1)
p220
(lp221
F1044.2550093426046
aF1081.777303326505
atp222
a(Vh.MC5[2].apic[2](1)
p223
(lp224
F1445.4152695448201
aF1455.6062865733779
aF1473.8810848455846
atp225
a(Vh.TC4[10].apic[2](1)
p226
(lp227
F1445.5177824976297
aF1451.7124397067212
aF1485.5387951078717
atp228
a(Vh.MC5[2].apic[2](1)
p229
(lp230
F261.49350814702535
aF293.19195880768774
atp231
a(Vh.TC4[10].apic[2](1)
p232
(lp233
F221.20550179927432
aF285.35663389697106
atp234
a(Vh.MC5[2].apic[2](1)
p235
(lp236
F629.68974586773152
aF641.35731007255026
atp237
a(Vh.TC4[10].apic[2](1)
p238
(lp239
F616.64993465157329
aF682.27479402272195
atp240
a(Vh.MC5[2].apic[2](1)
p241
(lp242
F1660.3618357285927
aF1700.5504071272021
aF1717.5248417261987
atp243
a(Vh.TC4[10].apic[2](1)
p244
(lp245
F1642.4838000054212
aF1657.62310631071
aF1696.1697984069322
atp246
a(Vh.MC5[2].apic[2](1)
p247
(lp248
F1248.6628477819083
aF1280.619276710496
atp249
a(Vh.TC4[10].apic[2](1)
p250
(lp251
F1250.0177181761107
aF1279.6008606044509
atp252
a(Vh.MC5[2].apic[2](1)
p253
(ltp254
a(Vh.TC4[10].apic[2](1)
p255
(ltp256
a(Vh.MC5[2].apic[2](1)
p257
(lp258
F854.17871490818982
aF886.0235246281303
aF890.84231184610019
atp259
a(Vh.TC4[10].apic[2](1)
p260
(lp261
F859.57773819167164
aF894.8000058345076
aF903.97309311492222
atp262
a(Vh.TC4[4].apic[2](1)
p263
(lp264
F41.67866836746488
atp265
a(Vh.MC5[4].apic[2](1)
p266
(lp267
F57.005397674088833
atp268
a(Vh.TC4[4].apic[2](1)
p269
(lp270
F442.86964680124356
aF471.43484780807489
aF486.49121030013862
atp271
a(Vh.MC5[4].apic[2](1)
p272
(lp273
F413.26952156050919
aF419.32830233851593
aF486.06096875580732
atp274
a(Vh.TC4[4].apic[2](1)
p275
(lp276
F1036.7615995929084
aF1102.701317534478
atp277
a(Vh.MC5[4].apic[2](1)
p278
(lp279
F1028.2338907956751
aF1083.178647873829
atp280
a(Vh.TC4[4].apic[2](1)
p281
(lp282
F1429.9157270061853
aF1464.7982207559241
aF1481.0893910610559
atp283
a(Vh.MC5[4].apic[2](1)
p284
(lp285
F1433.6226647905264
aF1460.7655629424485
aF1475.2619113168148
atp286
a(Vh.TC4[4].apic[2](1)
p287
(lp288
F250.10160141422779
aF255.66180401809316
atp289
a(Vh.MC5[4].apic[2](1)
p290
(lp291
F253.35933104542337
aF258.50478039245013
atp292
a(Vh.TC4[4].apic[2](1)
p293
(lp294
F674.44875021738426
aF718.02452679436465
atp295
a(Vh.MC5[4].apic[2](1)
p296
(lp297
F619.44693352748595
aF634.99705156458049
atp298
a(Vh.TC4[4].apic[2](1)
p299
(lp300
F1665.9118901493903
aF1676.2795171083058
aF1677.8979330398115
atp301
a(Vh.MC5[4].apic[2](1)
p302
(lp303
F1644.5871097847617
aF1648.7047600358078
aF1665.1173951682149
atp304
a(Vh.TC4[4].apic[2](1)
p305
(lp306
F1269.3547099832967
aF1288.4115135041775
atp307
a(Vh.MC5[4].apic[2](1)
p308
(lp309
F1282.2642010951458
aF1287.7672907065858
atp310
a(Vh.TC4[4].apic[2](1)
p311
(ltp312
a(Vh.MC5[4].apic[2](1)
p313
(ltp314
a(Vh.TC4[4].apic[2](1)
p315
(lp316
F846.1774859959703
aF877.84735487913167
aF899.5743437600911
atp317
a(Vh.MC5[4].apic[2](1)
p318
(lp319
F856.37982902855299
aF873.32382831769144
aF897.75670237175325
atp320
a(Vh.MC5[6].apic[2](1)
p321
(lp322
F65.683605415863738
atp323
a(Vh.TC5[10].apic[1](1)
p324
(lp325
F67.457995359189141
atp326
a(Vh.MC5[6].apic[2](1)
p327
(lp328
F402.90613673984075
aF461.34855478343803
aF492.80577432102672
atp329
a(Vh.TC5[10].apic[1](1)
p330
(lp331
F462.42009561150769
aF469.57860759094535
aF508.47479762040587
atp332
a(Vh.MC5[6].apic[2](1)
p333
(lp334
F1029.5406877370997
aF1033.8606543086121
atp335
a(Vh.TC5[10].apic[1](1)
p336
(lp337
F1017.2349451489063
aF1075.0570791540285
atp338
a(Vh.MC5[6].apic[2](1)
p339
(lp340
F1403.5563354624207
aF1432.1411267822302
aF1459.5747574835002
atp341
a(Vh.TC5[10].apic[1](1)
p342
(lp343
F1444.9003301026364
aF1450.0891400841033
aF1464.8122818544566
atp344
a(Vh.MC5[6].apic[2](1)
p345
(lp346
F270.69691380912468
aF289.35161471337938
atp347
a(Vh.TC5[10].apic[1](1)
p348
(lp349
F247.93565055435528
aF262.49706275370647
atp350
a(Vh.MC5[6].apic[2](1)
p351
(lp352
F631.8238047674015
aF702.74568540522637
atp353
a(Vh.TC5[10].apic[1](1)
p354
(lp355
F667.05415465778242
aF670.65483347577583
atp356
a(Vh.MC5[6].apic[2](1)
p357
(lp358
F1629.7355478647421
aF1644.6397684085989
aF1674.8384071299868
atp359
a(Vh.TC5[10].apic[1](1)
p360
(lp361
F1664.0307306806458
aF1689.919703441768
aF1710.9104484720706
atp362
a(Vh.MC5[6].apic[2](1)
p363
(lp364
F1251.8943306343688
aF1278.7501067327723
atp365
a(Vh.TC5[10].apic[1](1)
p366
(lp367
F1243.0523585803019
aF1268.5882528722998
atp368
a(Vh.MC5[6].apic[2](1)
p369
(ltp370
a(Vh.TC5[10].apic[1](1)
p371
(ltp372
a(Vh.MC5[6].apic[2](1)
p373
(lp374
F863.51535333230856
aF903.14577031436136
atp375
a(Vh.TC5[10].apic[1](1)
p376
(lp377
F835.98832082924139
aF862.25856625113954
aF889.8014726571754
atp378
a(Vh.MC5[8].apic[2](1)
p379
(lp380
F71.675192472696764
atp381
a(Vh.TC5[16].apic[1](1)
p382
(lp383
F77.814091527856391
atp384
a(Vh.TC5[0].apic[1](1)
p385
(lp386
F41.288548042906839
atp387
a(Vh.MC5[8].apic[2](1)
p388
(lp389
F460.24861159900996
aF472.03379523053542
aF501.43901671486077
atp390
a(Vh.TC5[16].apic[1](1)
p391
(lp392
F449.95983721064272
aF476.07603842098001
aF492.10307579118421
atp393
a(Vh.TC5[0].apic[1](1)
p394
(lp395
F455.41479380250451
aF470.38977957350323
aF474.30505065332568
atp396
a(Vh.MC5[8].apic[2](1)
p397
(lp398
F1046.3177896098603
aF1047.7676765318568
atp399
a(Vh.TC5[16].apic[1](1)
p400
(lp401
F1031.5336286130851
aF1055.4110406846917
atp402
a(Vh.TC5[0].apic[1](1)
p403
(lp404
F1060.4208378389885
aF1069.3044879280778
atp405
a(Vh.MC5[8].apic[2](1)
p406
(lp407
F1464.0767317422933
aF1474.6466622957105
aF1497.0819131170128
atp408
a(Vh.TC5[16].apic[1](1)
p409
(lp410
F1433.3549374835045
aF1439.3181205149074
aF1490.7060081080597
atp411
a(Vh.TC5[0].apic[1](1)
p412
(lp413
F1459.7386230721813
aF1475.5397571611752
aF1485.857278200082
atp414
a(Vh.MC5[8].apic[2](1)
p415
(lp416
F240.88655670135185
aF254.76860045315922
atp417
a(Vh.TC5[16].apic[1](1)
p418
(lp419
F279.66365422827988
aF282.52891954533135
atp420
a(Vh.TC5[0].apic[1](1)
p421
(lp422
F265.53469872662248
aF271.88708249911116
atp423
a(Vh.MC5[8].apic[2](1)
p424
(lp425
F665.05710356725479
aF689.7661794001416
atp426
a(Vh.TC5[16].apic[1](1)
p427
(lp428
F625.48228854314198
aF643.24398028536939
atp429
a(Vh.TC5[0].apic[1](1)
p430
(lp431
F678.410800267676
aF685.95243962415157
atp432
a(Vh.MC5[8].apic[2](1)
p433
(lp434
F1633.6323906916666
aF1665.8747932090635
aF1680.2849624832968
atp435
a(Vh.TC5[16].apic[1](1)
p436
(lp437
F1628.0782800727823
aF1649.6417004850762
aF1670.0710610718372
atp438
a(Vh.TC5[0].apic[1](1)
p439
(lp440
F1623.0314341235658
aF1633.5719044513298
aF1641.1649774122343
atp441
a(Vh.MC5[8].apic[2](1)
p442
(lp443
F1232.6136633472072
aF1272.6511834148635
atp444
a(Vh.TC5[16].apic[1](1)
p445
(lp446
F1241.9775357025014
aF1317.5938859748635
atp447
a(Vh.TC5[0].apic[1](1)
p448
(lp449
F1224.2680461729849
aF1297.2523299182701
atp450
a(Vh.MC5[8].apic[2](1)
p451
(ltp452
a(Vh.TC5[16].apic[1](1)
p453
(ltp454
a(Vh.TC5[0].apic[1](1)
p455
(ltp456
a(Vh.MC5[8].apic[2](1)
p457
(lp458
F846.75933827159656
aF847.96060247512901
aF887.4250425853586
atp459
a(Vh.TC5[16].apic[1](1)
p460
(lp461
F851.27229367492521
aF857.40581231732619
aF858.14948990154733
atp462
a(Vh.TC5[0].apic[1](1)
p463
(lp464
F841.6059337331194
aF848.65793592381624
aF864.42862344836522
atp465
a(Vh.MC5[10].apic[2](1)
p466
(lp467
F49.943229512154879
atp468
a(Vh.TC3[2].apic[2](1)
p469
(lp470
F91.833423958700081
atp471
a(Vh.TC5[12].apic[1](1)
p472
(lp473
F64.868549980777559
atp474
a(Vh.MC5[10].apic[2](1)
p475
(lp476
F463.74299951512199
aF464.64236343374859
aF465.79486196534782
atp477
a(Vh.TC3[2].apic[2](1)
p478
(lp479
F414.77217687468146
aF459.56528121169367
aF464.7190852667992
atp480
a(Vh.TC5[12].apic[1](1)
p481
(lp482
F473.98502872884131
aF482.0315570971739
aF495.70154630418477
atp483
a(Vh.MC5[10].apic[2](1)
p484
(lp485
F1065.9619481211214
aF1070.6241471693309
atp486
a(Vh.TC3[2].apic[2](1)
p487
(lp488
F1006.154230121766
aF1064.6085490476148
atp489
a(Vh.TC5[12].apic[1](1)
p490
(lp491
F1042.3171185175045
aF1074.869963289819
atp492
a(Vh.MC5[10].apic[2](1)
p493
(lp494
F1419.0493845745827
aF1464.0176843394934
aF1497.8953933414327
atp495
a(Vh.TC3[2].apic[2](1)
p496
(lp497
F1435.5334513598787
aF1460.2818752682902
aF1479.8771373247164
atp498
a(Vh.TC5[12].apic[1](1)
p499
(lp500
F1442.3242480566119
aF1468.9458590681206
aF1475.1244663871475
atp501
a(Vh.MC5[10].apic[2](1)
p502
(lp503
F259.43973813698165
aF275.41298891671181
atp504
a(Vh.TC3[2].apic[2](1)
p505
(lp506
F205.23839001826559
aF289.72483884925504
atp507
a(Vh.TC5[12].apic[1](1)
p508
(lp509
F249.88505635665558
aF253.63647225817482
atp510
a(Vh.MC5[10].apic[2](1)
p511
(lp512
F612.74397688277975
aF642.77612070585349
atp513
a(Vh.TC3[2].apic[2](1)
p514
(lp515
F655.09262145173682
aF678.98645856967994
atp516
a(Vh.TC5[12].apic[1](1)
p517
(lp518
F686.16565265313329
aF689.96927919016957
atp519
a(Vh.MC5[10].apic[2](1)
p520
(lp521
F1664.4089345870239
aF1681.3766868323169
aF1682.6804135888274
atp522
a(Vh.TC3[2].apic[2](1)
p523
(lp524
F1656.9830845586232
aF1666.5182146827199
aF1680.1971454892494
atp525
a(Vh.TC5[12].apic[1](1)
p526
(lp527
F1635.4773159067583
aF1661.8738015850465
aF1685.0203184277209
atp528
a(Vh.MC5[10].apic[2](1)
p529
(lp530
F1279.9265204639939
aF1287.5718315165316
atp531
a(Vh.TC3[2].apic[2](1)
p532
(lp533
F1272.1045093385605
aF1277.4320265526926
atp534
a(Vh.TC5[12].apic[1](1)
p535
(lp536
F1252.315181586622
aF1302.0205672977083
atp537
a(Vh.MC5[10].apic[2](1)
p538
(ltp539
a(Vh.TC3[2].apic[2](1)
p540
(ltp541
a(Vh.TC5[12].apic[1](1)
p542
(ltp543
a(Vh.MC5[10].apic[2](1)
p544
(lp545
F880.05104462751365
aF890.61028880158051
atp546
a(Vh.TC3[2].apic[2](1)
p547
(lp548
F875.33539830923451
aF885.52286384406784
aF887.99507379093052
atp549
a(Vh.TC5[12].apic[1](1)
p550
(lp551
F840.61645240492351
aF848.06422530491147
aF900.26175243214118
atp552
a(Vh.MC5[12].apic[2](1)
p553
(lp554
F35.505179723781609
atp555
a(Vh.TC5[4].apic[1](1)
p556
(lp557
F85.861825119633295
atp558
a(Vh.TC4[16].apic[2](1)
p559
(lp560
F105.95320923513222
atp561
a(Vh.MC5[12].apic[2](1)
p562
(lp563
F447.85587073870784
aF474.46007950539376
aF488.80863937715321
atp564
a(Vh.TC5[4].apic[1](1)
p565
(lp566
F436.78376604818561
aF440.39171873974294
aF474.98080724384727
atp567
a(Vh.TC4[16].apic[2](1)
p568
(lp569
F427.42105785650892
aF441.78667314534255
aF483.34027110172292
atp570
a(Vh.MC5[12].apic[2](1)
p571
(lp572
F1008.084176893773
aF1056.358016495828
atp573
a(Vh.TC5[4].apic[1](1)
p574
(lp575
F1024.6238911016594
aF1061.3273433832233
atp576
a(Vh.TC4[16].apic[2](1)
p577
(lp578
F1062.0135891507143
aF1072.7950968745681
atp579
a(Vh.MC5[12].apic[2](1)
p580
(lp581
F1455.3049709172685
aF1470.4211998362514
aF1478.6537908058829
atp582
a(Vh.TC5[4].apic[1](1)
p583
(lp584
F1458.4191969213498
aF1477.7057538961494
aF1489.8334037784584
atp585
a(Vh.TC4[16].apic[2](1)
p586
(lp587
F1417.3207717335927
aF1460.4499640708336
aF1468.2185711453276
atp588
a(Vh.MC5[12].apic[2](1)
p589
(lp590
F216.81766718058211
aF271.468605466648
atp591
a(Vh.TC5[4].apic[1](1)
p592
(lp593
F244.61711831697588
aF257.22159539695019
atp594
a(Vh.TC4[16].apic[2](1)
p595
(lp596
F238.14755954425175
aF273.42952201056664
atp597
a(Vh.MC5[12].apic[2](1)
p598
(lp599
F649.17384158839934
aF700.43965948266703
atp600
a(Vh.TC5[4].apic[1](1)
p601
(lp602
F656.64192034537587
aF664.88539110273086
atp603
a(Vh.TC4[16].apic[2](1)
p604
(lp605
F653.32766360974608
aF671.51959689703961
atp606
a(Vh.MC5[12].apic[2](1)
p607
(lp608
F1667.2849737378765
aF1672.4880451156205
aF1695.0086569455007
atp609
a(Vh.TC5[4].apic[1](1)
p610
(lp611
F1629.1956080468287
aF1666.4181640468053
aF1675.0167941217017
atp612
a(Vh.TC4[16].apic[2](1)
p613
(lp614
F1616.7479813647765
aF1645.4291372080711
aF1660.9734150873815
atp615
a(Vh.MC5[12].apic[2](1)
p616
(lp617
F1257.2073887412023
aF1279.7786373362862
atp618
a(Vh.TC5[4].apic[1](1)
p619
(lp620
F1255.6512141618191
aF1263.0029614368755
atp621
a(Vh.TC4[16].apic[2](1)
p622
(lp623
F1247.3032301186918
atp624
a(Vh.MC5[12].apic[2](1)
p625
(ltp626
a(Vh.TC5[4].apic[1](1)
p627
(ltp628
a(Vh.TC4[16].apic[2](1)
p629
(ltp630
a(Vh.MC5[12].apic[2](1)
p631
(lp632
F880.11782046424946
aF889.40963236914399
atp633
a(Vh.TC5[4].apic[1](1)
p634
(lp635
F836.94574235055097
aF842.77572938425419
atp636
a(Vh.TC4[16].apic[2](1)
p637
(lp638
F835.81483596744522
aF849.72353214157317
aF869.47779996164047
atp639
a(Vh.MC4[2].apic[3](1)
p640
(lp641
F39.163531400347679
atp642
a(Vh.TC5[2].apic[1](1)
p643
(lp644
F83.536586676412199
atp645
a(Vh.TC5[18].apic[1](1)
p646
(lp647
F65.292874931572101
atp648
a(Vh.MC4[2].apic[3](1)
p649
(lp650
F455.10903558273407
aF458.69427461957065
aF488.67360173229787
atp651
a(Vh.TC5[2].apic[1](1)
p652
(lp653
F472.38748856262134
aF488.22797620935114
aF497.10015176808884
atp654
a(Vh.TC5[18].apic[1](1)
p655
(lp656
F438.42518532434104
aF446.46563454161497
aF467.34007470672822
atp657
a(Vh.MC4[2].apic[3](1)
p658
(lp659
F1056.8254219234461
aF1071.8474116280829
atp660
a(Vh.TC5[2].apic[1](1)
p661
(lp662
F1059.5898564949691
aF1097.9043741760477
atp663
a(Vh.TC5[18].apic[1](1)
p664
(lp665
F1085.9646531109113
aF1091.5738737304462
atp666
a(Vh.MC4[2].apic[3](1)
p667
(lp668
F1438.9177638380997
aF1440.1309354076884
aF1470.2935747139118
atp669
a(Vh.TC5[2].apic[1](1)
p670
(lp671
F1464.9353539191181
aF1504.0760481436125
aF1508.8285898418555
atp672
a(Vh.TC5[18].apic[1](1)
p673
(lp674
F1434.5290589886663
aF1467.2039643643925
atp675
a(Vh.MC4[2].apic[3](1)
p676
(lp677
F214.38211564627625
aF242.99151131061819
atp678
a(Vh.TC5[2].apic[1](1)
p679
(lp680
F233.02609814262178
aF275.99256174756096
atp681
a(Vh.TC5[18].apic[1](1)
p682
(lp683
F236.66636334461694
aF260.58923660587823
atp684
a(Vh.MC4[2].apic[3](1)
p685
(lp686
F670.31271071973026
aF700.83131090005907
atp687
a(Vh.TC5[2].apic[1](1)
p688
(lp689
F642.13601551875911
aF651.24631386691306
atp690
a(Vh.TC5[18].apic[1](1)
p691
(lp692
F616.02497188173584
atp693
a(Vh.MC4[2].apic[3](1)
p694
(lp695
F1656.0841712492961
aF1657.7792870755898
aF1685.239422108712
atp696
a(Vh.TC5[2].apic[1](1)
p697
(lp698
F1641.3968632518263
aF1677.8216855754881
aF1678.1125673852139
atp699
a(Vh.TC5[18].apic[1](1)
p700
(lp701
F1632.2867189506712
aF1660.3492597220236
aF1674.5372879422696
atp702
a(Vh.MC4[2].apic[3](1)
p703
(lp704
F1221.0004006491199
aF1259.6531263905008
atp705
a(Vh.TC5[2].apic[1](1)
p706
(lp707
F1263.8429415348908
aF1294.1658780052992
atp708
a(Vh.TC5[18].apic[1](1)
p709
(lp710
F1263.8892588518322
aF1267.2126142744498
atp711
a(Vh.MC4[2].apic[3](1)
p712
(ltp713
a(Vh.TC5[2].apic[1](1)
p714
(ltp715
a(Vh.TC5[18].apic[1](1)
p716
(ltp717
a(Vh.MC4[2].apic[3](1)
p718
(lp719
F842.69471223387586
aF853.16325945025596
aF877.83037170592729
atp720
a(Vh.TC5[2].apic[1](1)
p721
(lp722
F882.16888983150011
aF883.93263379938571
aF889.63159623598904
atp723
a(Vh.TC5[18].apic[1](1)
p724
(lp725
F847.14588515908292
aF863.52228415326647
aF911.66911864050473
atp726
a(Vh.TC4[0].apic[2](1)
p727
(lp728
F72.524381315762142
atp729
a(Vh.TC4[0].apic[2](1)
p730
(lp731
F449.41628957531793
aF461.46405929820708
aF470.33357156592888
atp732
a(Vh.TC4[0].apic[2](1)
p733
(lp734
F1028.4819167808228
aF1043.8851517897256
atp735
a(Vh.TC4[0].apic[2](1)
p736
(lp737
F1445.9483528693327
aF1447.3443829288608
aF1463.7230989561976
atp738
a(Vh.TC4[0].apic[2](1)
p739
(lp740
F224.22481869479012
aF266.25502688546965
atp741
a(Vh.TC4[0].apic[2](1)
p742
(lp743
F636.40857439901413
aF701.14038178334056
atp744
a(Vh.TC4[0].apic[2](1)
p745
(lp746
F1646.2367088796291
aF1686.2325890873085
aF1694.3841668030122
atp747
a(Vh.TC4[0].apic[2](1)
p748
(lp749
F1248.8512006445833
aF1255.2015621939338
atp750
a(Vh.TC4[0].apic[2](1)
p751
(ltp752
a(Vh.TC4[0].apic[2](1)
p753
(lp754
F847.71196126528321
aF854.38219117281051
aF891.36550698338988
atp755
a(Vh.TC4[8].apic[2](1)
p756
(lp757
F82.572626107365281
atp758
a(Vh.TC4[8].apic[2](1)
p759
(lp760
F452.86742309123213
aF456.18412710001201
aF469.1654243554209
atp761
a(Vh.TC4[8].apic[2](1)
p762
(lp763
F1058.0445326826261
aF1075.4202086856217
atp764
a(Vh.TC4[8].apic[2](1)
p765
(lp766
F1420.308776759701
aF1444.670498553178
aF1454.4280625572826
atp767
a(Vh.TC4[8].apic[2](1)
p768
(lp769
F238.91800508642078
aF292.31200461294554
atp770
a(Vh.TC4[8].apic[2](1)
p771
(lp772
F634.21528632309685
aF673.67270902143161
atp773
a(Vh.TC4[8].apic[2](1)
p774
(lp775
F1642.3644108758772
aF1644.7994347177505
aF1659.5270283531113
atp776
a(Vh.TC4[8].apic[2](1)
p777
(lp778
F1271.0121741898975
aF1290.6845867729594
atp779
a(Vh.TC4[8].apic[2](1)
p780
(ltp781
a(Vh.TC4[8].apic[2](1)
p782
(lp783
F852.26766994141315
aF859.66210849764673
aF895.20495319149029
atp784
a(Vh.TC3[0].apic[2](1)
p785
(lp786
F48.589472529418231
atp787
a(Vh.TC3[6].apic[2](1)
p788
(lp789
F73.459339951566619
atp790
a(Vh.TC4[14].apic[2](1)
p791
(lp792
F77.845769634577195
atp793
a(Vh.TC3[0].apic[2](1)
p794
(lp795
F466.9709561458306
aF481.25613836769509
aF489.75211284715596
atp796
a(Vh.TC3[6].apic[2](1)
p797
(lp798
F418.12902050156146
aF441.00180169097149
aF454.35714433292873
atp799
a(Vh.TC4[14].apic[2](1)
p800
(lp801
F427.09152022913895
aF440.87514934961632
aF468.38335893578551
atp802
a(Vh.TC3[0].apic[2](1)
p803
(lp804
F1072.3242485520316
aF1081.3731312959151
atp805
a(Vh.TC3[6].apic[2](1)
p806
(lp807
F1054.993119297781
aF1107.9607274156861
atp808
a(Vh.TC4[14].apic[2](1)
p809
(lp810
F1081.2294022084025
aF1092.8535735576679
atp811
a(Vh.TC3[0].apic[2](1)
p812
(lp813
F1420.8700802002222
aF1480.3902276129156
aF1501.7941754773324
atp814
a(Vh.TC3[6].apic[2](1)
p815
(lp816
F1443.2962318865598
aF1470.1603841465562
aF1489.1909974138903
atp817
a(Vh.TC4[14].apic[2](1)
p818
(lp819
F1408.2651637030031
aF1433.6318707681348
aF1451.2608861701956
atp820
a(Vh.TC3[0].apic[2](1)
p821
(lp822
F283.02954049761405
aF303.44379333174203
atp823
a(Vh.TC3[6].apic[2](1)
p824
(lp825
F231.30869556135559
aF259.89317094955112
atp826
a(Vh.TC4[14].apic[2](1)
p827
(lp828
F257.84838420089346
aF271.52437498857097
atp829
a(Vh.TC3[0].apic[2](1)
p830
(lp831
F620.55348305465509
aF654.5518809915477
atp832
a(Vh.TC3[6].apic[2](1)
p833
(lp834
F617.33934654771872
aF654.68555278916813
atp835
a(Vh.TC4[14].apic[2](1)
p836
(lp837
F634.98213818733905
aF721.88858264690919
atp838
a(Vh.TC3[0].apic[2](1)
p839
(lp840
F1664.4595372264814
aF1687.6752195037759
aF1706.1915553946558
atp841
a(Vh.TC3[6].apic[2](1)
p842
(lp843
F1648.3486203123614
aF1678.7314306770811
aF1698.8578028821705
atp844
a(Vh.TC4[14].apic[2](1)
p845
(lp846
F1670.7334361683131
aF1672.8814135261721
aF1714.1426071149151
atp847
a(Vh.TC3[0].apic[2](1)
p848
(lp849
F1269.4191555566256
aF1296.2194755816047
atp850
a(Vh.TC3[6].apic[2](1)
p851
(lp852
F1253.8465920945353
aF1275.7259746407392
atp853
a(Vh.TC4[14].apic[2](1)
p854
(lp855
F1278.8561697723783
aF1324.669734489227
atp856
a(Vh.TC3[0].apic[2](1)
p857
(ltp858
a(Vh.TC3[6].apic[2](1)
p859
(ltp860
a(Vh.TC4[14].apic[2](1)
p861
(ltp862
a(Vh.TC3[0].apic[2](1)
p863
(lp864
F853.20277528155043
aF864.20567798318893
aF915.58477243442053
atp865
a(Vh.TC3[6].apic[2](1)
p866
(lp867
F868.40396016719762
aF871.0918566996894
aF890.52018131831699
atp868
a(Vh.TC4[14].apic[2](1)
p869
(lp870
F842.86257099632599
aF876.4469481277024
aF884.18548374889451
atp871
a(Vh.TC5[8].apic[1](1)
p872
(lp873
F29.630164843120461
atp874
a(Vh.TC5[8].apic[1](1)
p875
(lp876
F458.93738145351017
aF481.73145463971446
aF502.76586087460328
atp877
a(Vh.TC5[8].apic[1](1)
p878
(lp879
F1059.5349280403962
aF1080.9823158903951
atp880
a(Vh.TC5[8].apic[1](1)
p881
(lp882
F1454.5386767076159
aF1474.4791386091467
aF1475.3075107400871
atp883
a(Vh.TC5[8].apic[1](1)
p884
(lp885
F255.10931160262643
aF268.68313111424686
atp886
a(Vh.TC5[8].apic[1](1)
p887
(lp888
F664.79510661212328
aF686.45292338899424
atp889
a(Vh.TC5[8].apic[1](1)
p890
(lp891
F1607.3786125604397
aF1622.9208847624882
aF1671.6652448239033
atp892
a(Vh.TC5[8].apic[1](1)
p893
(lp894
F1257.9055149544142
aF1300.1517875282771
atp895
a(Vh.TC5[8].apic[1](1)
p896
(ltp897
a(Vh.TC5[8].apic[1](1)
p898
(lp899
F851.54321653286195
aF873.23222254174209
aF885.90995752397509
atp900
a(Vh.TC3[4].apic[2](1)
p901
(lp902
F26.722935918136415
atp903
a(Vh.TC5[14].apic[1](1)
p904
(lp905
F80.439374366284056
atp906
a(Vh.TC3[4].apic[2](1)
p907
(lp908
F462.80845466884614
aF468.11375422403046
aF518.83277950522461
atp909
a(Vh.TC5[14].apic[1](1)
p910
(lp911
F460.92067571657702
aF460.9798179216146
aF485.5517011850946
atp912
a(Vh.TC3[4].apic[2](1)
p913
(lp914
F1032.4525001843108
aF1044.0525420719337
atp915
a(Vh.TC5[14].apic[1](1)
p916
(lp917
F1073.4529708107764
aF1082.6430443918882
atp918
a(Vh.TC3[4].apic[2](1)
p919
(lp920
F1455.4662533917283
aF1462.2332750419753
aF1475.7558462947766
atp921
a(Vh.TC5[14].apic[1](1)
p922
(lp923
F1426.7708325939368
aF1470.2450311940881
aF1515.1745033343684
atp924
a(Vh.TC3[4].apic[2](1)
p925
(lp926
F288.11315353666606
aF306.45817402333245
atp927
a(Vh.TC5[14].apic[1](1)
p928
(lp929
F227.53314319231529
aF236.71853488720362
atp930
a(Vh.TC3[4].apic[2](1)
p931
(lp932
F659.58470682468101
aF669.9469246030269
atp933
a(Vh.TC5[14].apic[1](1)
p934
(lp935
F670.16553567362723
aF683.28773364391793
atp936
a(Vh.TC3[4].apic[2](1)
p937
(lp938
F1670.5713151248553
aF1684.0318763220569
aF1707.1387438249938
atp939
a(Vh.TC5[14].apic[1](1)
p940
(lp941
F1620.1253183551191
aF1658.0777877349062
aF1671.0711515495971
atp942
a(Vh.TC3[4].apic[2](1)
p943
(lp944
F1256.573780870908
aF1264.7441976220828
atp945
a(Vh.TC5[14].apic[1](1)
p946
(lp947
F1283.4337324994281
aF1286.6516779131211
atp948
a(Vh.TC3[4].apic[2](1)
p949
(ltp950
a(Vh.TC5[14].apic[1](1)
p951
(ltp952
a(Vh.TC3[4].apic[2](1)
p953
(lp954
F827.90382389356171
aF860.34864980559371
aF886.31720720884766
atp955
a(Vh.TC5[14].apic[1](1)
p956
(lp957
F830.12726432067211
aF830.56975778821243
aF866.1955216651354
atp958
a(Vh.TC4[2].apic[2](1)
p959
(lp960
F49.073588680527116
atp961
a(Vh.TC4[2].apic[2](1)
p962
(lp963
F435.88058544272349
aF452.68211473320935
aF499.13904254958163
atp964
a(Vh.TC4[2].apic[2](1)
p965
(lp966
F1028.2299681014872
aF1064.1913354870078
atp967
a(Vh.TC4[2].apic[2](1)
p968
(lp969
F1422.1405052939813
aF1439.9401990162046
aF1452.9987779891212
atp970
a(Vh.TC4[2].apic[2](1)
p971
(lp972
F266.52559756004212
aF270.25908261511142
atp973
a(Vh.TC4[2].apic[2](1)
p974
(lp975
F636.99134651145368
aF691.42056164894257
atp976
a(Vh.TC4[2].apic[2](1)
p977
(lp978
F1630.1174030790569
aF1670.3239989287597
atp979
a(Vh.TC4[2].apic[2](1)
p980
(lp981
F1282.2298916311665
aF1319.7655186647517
atp982
a(Vh.TC4[2].apic[2](1)
p983
(ltp984
a(Vh.TC4[2].apic[2](1)
p985
(lp986
F855.60299799572078
aF862.14494439449334
aF881.7405937663126
atp987
a.