(lp1
(Vh.MC5[14].apic[2](1)
p2
(lp3
F52.690447512019162
atp4
a(Vh.TC4[6].apic[2](1)
p5
(lp6
F34.369260448906019
atp7
a(Vh.MC5[14].apic[2](1)
p8
(lp9
F467.93655236314396
aF486.21379683177952
atp10
a(Vh.TC4[6].apic[2](1)
p11
(lp12
F441.77931815430009
aF478.72830891803289
atp13
a(Vh.MC5[14].apic[2](1)
p14
(lp15
F1039.320986607878
aF1046.8176930514626
atp16
a(Vh.TC4[6].apic[2](1)
p17
(lp18
F1049.8022380203436
aF1074.7216342546192
atp19
a(Vh.MC5[14].apic[2](1)
p20
(lp21
F1451.2214688779429
aF1479.8573618270004
atp22
a(Vh.TC4[6].apic[2](1)
p23
(lp24
F1438.2476145132648
aF1521.9621989834893
atp25
a(Vh.MC5[14].apic[2](1)
p26
(lp27
F241.91952284306041
aF265.63604647318095
atp28
a(Vh.TC4[6].apic[2](1)
p29
(lp30
F266.90030976858134
aF300.59731203826902
atp31
a(Vh.MC5[14].apic[2](1)
p32
(lp33
F646.76247903509011
aF653.95243788343487
atp34
a(Vh.TC4[6].apic[2](1)
p35
(lp36
F650.52730474960458
aF654.39808821999077
atp37
a(Vh.MC5[14].apic[2](1)
p38
(lp39
F1634.02339246975
aF1695.5653804435101
atp40
a(Vh.TC4[6].apic[2](1)
p41
(lp42
F1651.5662873489455
aF1683.2787552206873
atp43
a(Vh.MC5[14].apic[2](1)
p44
(lp45
F1239.8169784672425
aF1295.5236366443075
atp46
a(Vh.TC4[6].apic[2](1)
p47
(lp48
F1248.5111755764819
aF1263.4035143226829
atp49
a(Vh.MC5[14].apic[2](1)
p50
(ltp51
a(Vh.TC4[6].apic[2](1)
p52
(ltp53
a(Vh.MC5[14].apic[2](1)
p54
(lp55
F858.88997795618525
aF920.69309769857682
atp56
a(Vh.TC4[6].apic[2](1)
p57
(lp58
F859.89966592620158
aF907.73124103470309
atp59
a(Vh.TC5[6].apic[1](1)
p60
(lp61
F84.703029332774747
atp62
a(Vh.MC4[0].apic[3](1)
p63
(lp64
F23.452630291606667
atp65
a(Vh.TC5[6].apic[1](1)
p66
(lp67
F474.05887760704047
aF499.28143826071994
atp68
a(Vh.MC4[0].apic[3](1)
p69
(lp70
F443.41196063892215
aF502.34217090998703
atp71
a(Vh.TC5[6].apic[1](1)
p72
(lp73
F1063.4314868318568
aF1074.8231561579785
atp74
a(Vh.MC4[0].apic[3](1)
p75
(lp76
F1044.7961081600477
aF1050.0414063090059
atp77
a(Vh.TC5[6].apic[1](1)
p78
(lp79
F1436.1849008391962
aF1480.65864708294
atp80
a(Vh.MC4[0].apic[3](1)
p81
(lp82
F1455.7508804400102
aF1502.3365693530152
atp83
a(Vh.TC5[6].apic[1](1)
p84
(lp85
F273.3016678340303
aF290.11071093591971
atp86
a(Vh.MC4[0].apic[3](1)
p87
(lp88
F234.17961910422801
aF264.77316849831755
atp89
a(Vh.TC5[6].apic[1](1)
p90
(lp91
F629.13542296540982
aF701.5838972710385
atp92
a(Vh.MC4[0].apic[3](1)
p93
(lp94
F625.78853210473414
aF641.70705730893599
atp95
a(Vh.TC5[6].apic[1](1)
p96
(lp97
F1606.4301175047522
aF1681.6866881174501
atp98
a(Vh.MC4[0].apic[3](1)
p99
(lp100
F1670.8102854633516
aF1714.5928267103764
atp101
a(Vh.TC5[6].apic[1](1)
p102
(lp103
F1224.7430252390473
aF1281.0643560672338
atp104
a(Vh.MC4[0].apic[3](1)
p105
(lp106
F1261.9928786383591
aF1301.2242822281012
atp107
a(Vh.TC5[6].apic[1](1)
p108
(ltp109
a(Vh.MC4[0].apic[3](1)
p110
(ltp111
a(Vh.TC5[6].apic[1](1)
p112
(lp113
F860.5939909390371
aF864.092717190602
atp114
a(Vh.MC4[0].apic[3](1)
p115
(lp116
F838.23291780305715
aF859.15775870599134
atp117
a(Vh.TC4[12].apic[2](1)
p118
(lp119
F97.712207606883709
atp120
a(Vh.MC5[0].apic[2](1)
p121
(lp122
F39.22943339150649
atp123
a(Vh.TC5[20].apic[1](1)
p124
(lp125
F42.267552812844563
atp126
a(Vh.TC4[12].apic[2](1)
p127
(lp128
F460.19031732372645
aF476.79041919139814
atp129
a(Vh.MC5[0].apic[2](1)
p130
(lp131
F436.94573655764015
aF496.95951047298996
atp132
a(Vh.TC5[20].apic[1](1)
p133
(lp134
F437.66683952898819
aF451.83553897045732
atp135
a(Vh.TC4[12].apic[2](1)
p136
(lp137
F1073.6694252839977
aF1076.9775441197378
atp138
a(Vh.MC5[0].apic[2](1)
p139
(lp140
F1050.745154480886
aF1084.8041204569072
atp141
a(Vh.TC5[20].apic[1](1)
p142
(lp143
F1064.2606732452616
aF1094.2686998828356
atp144
a(Vh.TC4[12].apic[2](1)
p145
(lp146
F1424.9642056155258
aF1436.4220360278059
atp147
a(Vh.MC5[0].apic[2](1)
p148
(lp149
F1418.5300893938443
aF1477.6083701435587
atp150
a(Vh.TC5[20].apic[1](1)
p151
(lp152
F1465.4790134873836
aF1471.7231251729343
atp153
a(Vh.TC4[12].apic[2](1)
p154
(lp155
F266.86637598021565
aF287.72872815853378
atp156
a(Vh.MC5[0].apic[2](1)
p157
(lp158
F277.80516731788651
aF281.55657511645683
atp159
a(Vh.TC5[20].apic[1](1)
p160
(lp161
F231.26173199219375
aF269.43428156992132
atp162
a(Vh.TC4[12].apic[2](1)
p163
(lp164
F684.09653128073614
aF685.06238450196042
atp165
a(Vh.MC5[0].apic[2](1)
p166
(lp167
F628.25587668498508
aF652.9228899563833
atp168
a(Vh.TC5[20].apic[1](1)
p169
(lp170
F622.97818436375007
aF674.88181921377611
atp171
a(Vh.TC4[12].apic[2](1)
p172
(lp173
F1692.2496885747171
aF1700.8339432172586
atp174
a(Vh.MC5[0].apic[2](1)
p175
(lp176
F1634.2292185319543
aF1634.248551598454
atp177
a(Vh.TC5[20].apic[1](1)
p178
(lp179
F1641.1425833948836
aF1649.8221136060017
atp180
a(Vh.TC4[12].apic[2](1)
p181
(lp182
F1235.9821722855759
aF1297.413668542682
atp183
a(Vh.MC5[0].apic[2](1)
p184
(lp185
F1260.9110149421342
aF1265.7243979140828
atp186
a(Vh.TC5[20].apic[1](1)
p187
(lp188
F1281.8033311318329
aF1303.7668931089881
atp189
a(Vh.TC4[12].apic[2](1)
p190
(ltp191
a(Vh.MC5[0].apic[2](1)
p192
(ltp193
a(Vh.TC5[20].apic[1](1)
p194
(ltp195
a(Vh.TC4[12].apic[2](1)
p196
(lp197
F853.45294839546068
aF892.0158231681005
atp198
a(Vh.MC5[0].apic[2](1)
p199
(lp200
F863.91576469202971
aF869.33745650719868
atp201
a(Vh.TC5[20].apic[1](1)
p202
(lp203
F859.68229276692443
aF880.62752759458169
atp204
a(Vh.MC5[2].apic[2](1)
p205
(lp206
F74.101569586175515
atp207
a(Vh.TC4[10].apic[2](1)
p208
(lp209
F65.92080796823906
atp210
a(Vh.MC5[2].apic[2](1)
p211
(lp212
F452.3338645743865
aF501.92897672751548
atp213
a(Vh.TC4[10].apic[2](1)
p214
(lp215
F447.79690551339303
aF513.15450481735206
atp216
a(Vh.MC5[2].apic[2](1)
p217
(lp218
F1009.030614420133
aF1040.1219548307245
atp219
a(Vh.TC4[10].apic[2](1)
p220
(lp221
F1067.596729886639
aF1094.9795612864964
atp222
a(Vh.MC5[2].apic[2](1)
p223
(lp224
F1481.0382180321028
aF1503.5717224790244
atp225
a(Vh.TC4[10].apic[2](1)
p226
(lp227
F1467.7624071812006
aF1505.6472299850984
atp228
a(Vh.MC5[2].apic[2](1)
p229
(lp230
F281.57663354723371
aF304.18656313294667
atp231
a(Vh.TC4[10].apic[2](1)
p232
(lp233
F210.69432565860362
aF275.14225279857885
atp234
a(Vh.MC5[2].apic[2](1)
p235
(lp236
F629.68974586773152
aF641.35731007255026
atp237
a(Vh.TC4[10].apic[2](1)
p238
(lp239
F616.64993465157329
aF682.27479402272195
atp240
a(Vh.MC5[2].apic[2](1)
p241
(lp242
F1662.2529062177955
aF1667.4057101038015
atp243
a(Vh.TC4[10].apic[2](1)
p244
(lp245
F1601.8488973709545
aF1633.0548688753397
atp246
a(Vh.MC5[2].apic[2](1)
p247
(lp248
F1248.6628477819083
aF1280.619276710496
atp249
a(Vh.TC4[10].apic[2](1)
p250
(lp251
F1250.0177181761107
aF1279.6008606044509
atp252
a(Vh.MC5[2].apic[2](1)
p253
(ltp254
a(Vh.TC4[10].apic[2](1)
p255
(ltp256
a(Vh.MC5[2].apic[2](1)
p257
(lp258
F854.04986182089044
aF912.86040890178117
atp259
a(Vh.TC4[10].apic[2](1)
p260
(lp261
F805.20335001679541
aF880.27747806818502
atp262
a(Vh.TC4[4].apic[2](1)
p263
(lp264
F41.67866836746488
atp265
a(Vh.MC5[4].apic[2](1)
p266
(lp267
F57.005397674088833
atp268
a(Vh.TC4[4].apic[2](1)
p269
(lp270
F419.49031728935734
aF459.59859561063058
atp271
a(Vh.MC5[4].apic[2](1)
p272
(lp273
F454.10106001643521
aF466.96261871909019
atp274
a(Vh.TC4[4].apic[2](1)
p275
(lp276
F1053.2346420388701
aF1089.8526450150073
atp277
a(Vh.MC5[4].apic[2](1)
p278
(lp279
F1010.2556569800132
aF1075.2233964683146
atp280
a(Vh.TC4[4].apic[2](1)
p281
(lp282
F1499.4462096605812
atp283
a(Vh.MC5[4].apic[2](1)
p284
(lp285
F1452.0081961818621
aF1490.9715204607626
atp286
a(Vh.TC4[4].apic[2](1)
p287
(lp288
F228.35930889508791
aF247.09311318134485
atp289
a(Vh.MC5[4].apic[2](1)
p290
(lp291
F252.294100533902
aF300.54223402792729
atp292
a(Vh.TC4[4].apic[2](1)
p293
(lp294
F674.44875021738426
aF718.02452679436465
atp295
a(Vh.MC5[4].apic[2](1)
p296
(lp297
F619.44693352748595
aF634.99705156458049
atp298
a(Vh.TC4[4].apic[2](1)
p299
(lp300
F1646.989913764535
aF1706.2919680417315
atp301
a(Vh.MC5[4].apic[2](1)
p302
(lp303
F1660.8647680986514
aF1673.0596586930715
atp304
a(Vh.TC4[4].apic[2](1)
p305
(lp306
F1269.3547099832967
aF1288.4115135041775
atp307
a(Vh.MC5[4].apic[2](1)
p308
(lp309
F1282.2642010951458
aF1287.7672907065858
atp310
a(Vh.TC4[4].apic[2](1)
p311
(ltp312
a(Vh.MC5[4].apic[2](1)
p313
(ltp314
a(Vh.TC4[4].apic[2](1)
p315
(lp316
F820.94998386144437
aF848.28967662279172
atp317
a(Vh.MC5[4].apic[2](1)
p318
(lp319
F859.46876755364337
aF879.44905884357308
atp320
a(Vh.MC5[6].apic[2](1)
p321
(lp322
F65.683605415863738
atp323
a(Vh.TC5[10].apic[1](1)
p324
(lp325
F67.457995359189141
atp326
a(Vh.MC5[6].apic[2](1)
p327
(lp328
F455.04190561863044
aF494.18454221564849
atp329
a(Vh.TC5[10].apic[1](1)
p330
(lp331
F447.0133064917037
aF470.24021185792105
atp332
a(Vh.MC5[6].apic[2](1)
p333
(lp334
F1066.4978733064038
aF1090.5905506490869
atp335
a(Vh.TC5[10].apic[1](1)
p336
(lp337
F1041.9445727949692
aF1067.1452645349368
atp338
a(Vh.MC5[6].apic[2](1)
p339
(lp340
F1459.5648126396502
aF1477.1001867868029
atp341
a(Vh.TC5[10].apic[1](1)
p342
(lp343
F1430.6432032659932
aF1518.8833878584605
atp344
a(Vh.MC5[6].apic[2](1)
p345
(lp346
F248.71459557915546
aF283.8777216544263
atp347
a(Vh.TC5[10].apic[1](1)
p348
(lp349
F294.78428958112312
aF302.36360328716756
atp350
a(Vh.MC5[6].apic[2](1)
p351
(lp352
F631.8238047674015
aF702.74568540522637
atp353
a(Vh.TC5[10].apic[1](1)
p354
(lp355
F667.05415465778242
aF670.65483347577583
atp356
a(Vh.MC5[6].apic[2](1)
p357
(lp358
F1653.6382958606016
aF1675.3117307801624
atp359
a(Vh.TC5[10].apic[1](1)
p360
(lp361
F1622.3631167377312
aF1639.5471037574484
atp362
a(Vh.MC5[6].apic[2](1)
p363
(lp364
F1251.8943306343688
aF1278.7501067327723
atp365
a(Vh.TC5[10].apic[1](1)
p366
(lp367
F1243.0523585803019
aF1268.5882528722998
atp368
a(Vh.MC5[6].apic[2](1)
p369
(ltp370
a(Vh.TC5[10].apic[1](1)
p371
(ltp372
a(Vh.MC5[6].apic[2](1)
p373
(lp374
F864.87149830681926
aF866.7002770004641
atp375
a(Vh.TC5[10].apic[1](1)
p376
(lp377
F823.03301751850086
aF890.40038967329519
atp378
a(Vh.MC5[8].apic[2](1)
p379
(lp380
F71.675192472696764
atp381
a(Vh.TC5[16].apic[1](1)
p382
(lp383
F77.814091527856391
atp384
a(Vh.TC5[0].apic[1](1)
p385
(lp386
F41.288548042906839
atp387
a(Vh.MC5[8].apic[2](1)
p388
(lp389
F477.65301320466847
aF489.0386743129817
atp390
a(Vh.TC5[16].apic[1](1)
p391
(lp392
F460.5824145521953
aF484.59781823098405
atp393
a(Vh.TC5[0].apic[1](1)
p394
(lp395
F455.61736654598297
aF473.64319578449005
atp396
a(Vh.MC5[8].apic[2](1)
p397
(lp398
F1049.2044832033855
aF1052.7967932076551
atp399
a(Vh.TC5[16].apic[1](1)
p400
(lp401
F1057.0026467888415
aF1073.8075762691615
atp402
a(Vh.TC5[0].apic[1](1)
p403
(lp404
F1048.041729425222
aF1100.3206570343236
atp405
a(Vh.MC5[8].apic[2](1)
p406
(lp407
F1472.2372273711924
aF1505.0236841008566
atp408
a(Vh.TC5[16].apic[1](1)
p409
(lp410
F1445.5903285151712
aF1510.8285097257972
atp411
a(Vh.TC5[0].apic[1](1)
p412
(lp413
F1432.9642564260921
aF1459.542765541124
atp414
a(Vh.MC5[8].apic[2](1)
p415
(lp416
F237.71034287968854
aF259.42286908975001
atp417
a(Vh.TC5[16].apic[1](1)
p418
(lp419
F277.36096748959307
aF283.92758409832328
atp420
a(Vh.TC5[0].apic[1](1)
p421
(lp422
F263.52057206472836
aF306.37123133325116
atp423
a(Vh.MC5[8].apic[2](1)
p424
(lp425
F665.05710356725479
aF689.7661794001416
atp426
a(Vh.TC5[16].apic[1](1)
p427
(lp428
F625.48228854314198
aF643.24398028536939
atp429
a(Vh.TC5[0].apic[1](1)
p430
(lp431
F678.410800267676
aF685.95243962415157
atp432
a(Vh.MC5[8].apic[2](1)
p433
(lp434
F1653.437365984794
aF1668.8169227745996
atp435
a(Vh.TC5[16].apic[1](1)
p436
(lp437
F1635.4833589162647
aF1659.3826980535985
atp438
a(Vh.TC5[0].apic[1](1)
p439
(lp440
F1656.7013942322387
aF1667.009899194934
atp441
a(Vh.MC5[8].apic[2](1)
p442
(lp443
F1232.6136633472072
aF1272.6511834148635
atp444
a(Vh.TC5[16].apic[1](1)
p445
(lp446
F1241.9775357025014
aF1317.5938859748635
atp447
a(Vh.TC5[0].apic[1](1)
p448
(lp449
F1224.2680461729849
aF1297.2523299182701
atp450
a(Vh.MC5[8].apic[2](1)
p451
(ltp452
a(Vh.TC5[16].apic[1](1)
p453
(ltp454
a(Vh.TC5[0].apic[1](1)
p455
(ltp456
a(Vh.MC5[8].apic[2](1)
p457
(lp458
F871.69949158196516
aF899.51610131360974
atp459
a(Vh.TC5[16].apic[1](1)
p460
(lp461
F848.49099074844173
aF856.33426315684949
atp462
a(Vh.TC5[0].apic[1](1)
p463
(lp464
F850.16048975123033
aF877.20067951984981
atp465
a(Vh.MC5[10].apic[2](1)
p466
(lp467
F49.943229512154879
atp468
a(Vh.TC3[2].apic[2](1)
p469
(lp470
F91.833423958700081
atp471
a(Vh.TC5[12].apic[1](1)
p472
(lp473
F64.868549980777559
atp474
a(Vh.MC5[10].apic[2](1)
p475
(lp476
F456.97638713810744
aF486.17402150013726
atp477
a(Vh.TC3[2].apic[2](1)
p478
(lp479
F454.74454594127508
aF481.40441330500892
atp480
a(Vh.TC5[12].apic[1](1)
p481
(lp482
F452.10920858983076
aF480.17299076570515
atp483
a(Vh.MC5[10].apic[2](1)
p484
(lp485
F1063.0949582386208
aF1084.0352360417021
atp486
a(Vh.TC3[2].apic[2](1)
p487
(lp488
F1026.883603399406
aF1074.1528054546723
atp489
a(Vh.TC5[12].apic[1](1)
p490
(lp491
F1041.0775241579986
aF1053.2535943474832
atp492
a(Vh.MC5[10].apic[2](1)
p493
(lp494
F1445.0493663789159
aF1489.2571174404309
atp495
a(Vh.TC3[2].apic[2](1)
p496
(lp497
F1467.5312997313222
aF1472.1452814971863
atp498
a(Vh.TC5[12].apic[1](1)
p499
(lp500
F1437.8439927227384
aF1462.2504758712682
atp501
a(Vh.MC5[10].apic[2](1)
p502
(lp503
F237.69001988862303
aF265.18925070947603
atp504
a(Vh.TC3[2].apic[2](1)
p505
(lp506
F239.1599111110722
aF283.53838300381346
atp507
a(Vh.TC5[12].apic[1](1)
p508
(lp509
F212.63270522612038
aF270.3217418611772
atp510
a(Vh.MC5[10].apic[2](1)
p511
(lp512
F612.74397688277975
aF642.77612070585349
atp513
a(Vh.TC3[2].apic[2](1)
p514
(lp515
F655.09262145173682
aF678.98645856967994
atp516
a(Vh.TC5[12].apic[1](1)
p517
(lp518
F686.16565265313329
aF689.96927919016957
atp519
a(Vh.MC5[10].apic[2](1)
p520
(lp521
F1625.7083192513462
aF1648.7819509523154
atp522
a(Vh.TC3[2].apic[2](1)
p523
(lp524
F1656.0161543667534
aF1663.2398010299837
atp525
a(Vh.TC5[12].apic[1](1)
p526
(lp527
F1676.6416755493033
aF1682.281456440172
atp528
a(Vh.MC5[10].apic[2](1)
p529
(lp530
F1279.9265204639939
aF1287.5718315165316
atp531
a(Vh.TC3[2].apic[2](1)
p532
(lp533
F1272.1045093385605
aF1277.4320265526926
atp534
a(Vh.TC5[12].apic[1](1)
p535
(lp536
F1252.315181586622
aF1302.0205672977083
atp537
a(Vh.MC5[10].apic[2](1)
p538
(ltp539
a(Vh.TC3[2].apic[2](1)
p540
(ltp541
a(Vh.TC5[12].apic[1](1)
p542
(ltp543
a(Vh.MC5[10].apic[2](1)
p544
(lp545
F868.77529853553142
aF868.81333055894856
atp546
a(Vh.TC3[2].apic[2](1)
p547
(lp548
F832.57473383931062
aF913.16700189525261
atp549
a(Vh.TC5[12].apic[1](1)
p550
(lp551
F867.55443451025337
aF895.55160910302641
atp552
a(Vh.MC5[12].apic[2](1)
p553
(lp554
F35.505179723781609
atp555
a(Vh.TC5[4].apic[1](1)
p556
(lp557
F85.861825119633295
atp558
a(Vh.TC4[16].apic[2](1)
p559
(lp560
F105.95320923513222
atp561
a(Vh.MC5[12].apic[2](1)
p562
(lp563
F414.68010699803568
aF459.55978156594284
atp564
a(Vh.TC5[4].apic[1](1)
p565
(lp566
F456.59302898966564
aF461.07964064726173
atp567
a(Vh.TC4[16].apic[2](1)
p568
(lp569
F445.58507017145507
aF466.6735679054766
atp570
a(Vh.MC5[12].apic[2](1)
p571
(lp572
F1069.1208224886857
aF1080.0971936072012
atp573
a(Vh.TC5[4].apic[1](1)
p574
(lp575
F1077.3409226663157
aF1087.824428057836
atp576
a(Vh.TC4[16].apic[2](1)
p577
(lp578
F1021.7408867239881
aF1068.3673964103234
atp579
a(Vh.MC5[12].apic[2](1)
p580
(lp581
F1460.1929210438259
aF1467.0546881722473
atp582
a(Vh.TC5[4].apic[1](1)
p583
(lp584
F1441.5051097973565
aF1503.1237388524669
atp585
a(Vh.TC4[16].apic[2](1)
p586
(lp587
F1454.0130157721942
aF1470.6544527602782
atp588
a(Vh.MC5[12].apic[2](1)
p589
(lp590
F229.07672707124868
aF298.68124340263591
atp591
a(Vh.TC5[4].apic[1](1)
p592
(lp593
F275.88249966587307
aF311.87826737816715
atp594
a(Vh.TC4[16].apic[2](1)
p595
(lp596
F293.73152424296097
aF297.66781946218509
atp597
a(Vh.MC5[12].apic[2](1)
p598
(lp599
F649.17384158839934
aF700.43965948266703
atp600
a(Vh.TC5[4].apic[1](1)
p601
(lp602
F656.64192034537587
aF664.88539110273086
atp603
a(Vh.TC4[16].apic[2](1)
p604
(lp605
F653.32766360974608
aF671.51959689703961
atp606
a(Vh.MC5[12].apic[2](1)
p607
(lp608
F1656.4646376266799
aF1673.5717755932121
atp609
a(Vh.TC5[4].apic[1](1)
p610
(lp611
F1625.9754692461495
aF1689.3159783939007
atp612
a(Vh.TC4[16].apic[2](1)
p613
(lp614
F1626.8692992593813
aF1658.9510561629602
atp615
a(Vh.MC5[12].apic[2](1)
p616
(lp617
F1257.2073887412023
aF1279.7786373362862
atp618
a(Vh.TC5[4].apic[1](1)
p619
(lp620
F1255.6512141618191
aF1263.0029614368755
atp621
a(Vh.TC4[16].apic[2](1)
p622
(lp623
F1247.3032301186918
atp624
a(Vh.MC5[12].apic[2](1)
p625
(ltp626
a(Vh.TC5[4].apic[1](1)
p627
(ltp628
a(Vh.TC4[16].apic[2](1)
p629
(ltp630
a(Vh.MC5[12].apic[2](1)
p631
(lp632
F819.28729638520213
aF906.35202508768839
atp633
a(Vh.TC5[4].apic[1](1)
p634
(lp635
F860.51492772324184
aF870.96741743508971
atp636
a(Vh.TC4[16].apic[2](1)
p637
(lp638
F845.65674388359935
aF878.53204926062881
atp639
a(Vh.MC4[2].apic[3](1)
p640
(lp641
F39.163531400347679
atp642
a(Vh.TC5[2].apic[1](1)
p643
(lp644
F83.536586676412199
atp645
a(Vh.TC5[18].apic[1](1)
p646
(lp647
F65.292874931572101
atp648
a(Vh.MC4[2].apic[3](1)
p649
(lp650
F444.01086184119657
aF498.51508824430044
atp651
a(Vh.TC5[2].apic[1](1)
p652
(lp653
F441.19173968357569
aF459.98064675023164
atp654
a(Vh.TC5[18].apic[1](1)
p655
(lp656
F439.04814383142349
aF492.42288133150322
atp657
a(Vh.MC4[2].apic[3](1)
p658
(lp659
F1063.160692152906
aF1076.3845736827511
atp660
a(Vh.TC5[2].apic[1](1)
p661
(lp662
F1053.843008632143
aF1060.1431846242133
atp663
a(Vh.TC5[18].apic[1](1)
p664
(lp665
F1053.6893530253928
aF1080.0647826394716
atp666
a(Vh.MC4[2].apic[3](1)
p667
(lp668
F1438.9506281488641
aF1480.971163840876
atp669
a(Vh.TC5[2].apic[1](1)
p670
(lp671
F1454.5439042281926
aF1501.2420524533015
atp672
a(Vh.TC5[18].apic[1](1)
p673
(lp674
F1481.3696999416152
aF1504.5096418002558
atp675
a(Vh.MC4[2].apic[3](1)
p676
(lp677
F254.50620743531999
aF261.67786917456965
atp678
a(Vh.TC5[2].apic[1](1)
p679
(lp680
F250.43076084451189
aF293.71194354783921
atp681
a(Vh.TC5[18].apic[1](1)
p682
(lp683
F304.5638595934056
aF317.50562163261975
atp684
a(Vh.MC4[2].apic[3](1)
p685
(lp686
F670.31271071973026
aF700.83131090005907
atp687
a(Vh.TC5[2].apic[1](1)
p688
(lp689
F642.13601551875911
aF651.24631386691306
atp690
a(Vh.TC5[18].apic[1](1)
p691
(lp692
F616.02497188173584
atp693
a(Vh.MC4[2].apic[3](1)
p694
(lp695
F1659.3396018056517
aF1672.9932912396996
atp696
a(Vh.TC5[2].apic[1](1)
p697
(lp698
F1635.1077744746324
aF1665.345970084041
atp699
a(Vh.TC5[18].apic[1](1)
p700
(lp701
F1688.276268126267
atp702
a(Vh.MC4[2].apic[3](1)
p703
(lp704
F1221.0004006491199
aF1259.6531263905008
atp705
a(Vh.TC5[2].apic[1](1)
p706
(lp707
F1263.8429415348908
aF1294.1658780052992
atp708
a(Vh.TC5[18].apic[1](1)
p709
(lp710
F1263.8892588518322
aF1267.2126142744498
atp711
a(Vh.MC4[2].apic[3](1)
p712
(ltp713
a(Vh.TC5[2].apic[1](1)
p714
(ltp715
a(Vh.TC5[18].apic[1](1)
p716
(ltp717
a(Vh.MC4[2].apic[3](1)
p718
(lp719
F851.24849483906326
aF890.35586178879987
atp720
a(Vh.TC5[2].apic[1](1)
p721
(lp722
F855.68289079960755
aF878.40678642644434
atp723
a(Vh.TC5[18].apic[1](1)
p724
(lp725
F872.98194228731438
aF873.6236581882805
atp726
a(Vh.TC4[0].apic[2](1)
p727
(lp728
F72.524381315762142
atp729
a(Vh.TC4[0].apic[2](1)
p730
(lp731
F460.23757448740713
aF480.62839989020443
atp732
a(Vh.TC4[0].apic[2](1)
p733
(lp734
F1033.0430155022107
aF1056.9119007205329
atp735
a(Vh.TC4[0].apic[2](1)
p736
(lp737
F1446.8994506118124
aF1469.428966552477
atp738
a(Vh.TC4[0].apic[2](1)
p739
(lp740
F266.5653828390931
aF302.8100432689713
atp741
a(Vh.TC4[0].apic[2](1)
p742
(lp743
F636.40857439901413
aF701.14038178334056
atp744
a(Vh.TC4[0].apic[2](1)
p745
(lp746
F1625.0270622404398
aF1679.6315442541002
atp747
a(Vh.TC4[0].apic[2](1)
p748
(lp749
F1248.8512006445833
aF1255.2015621939338
atp750
a(Vh.TC4[0].apic[2](1)
p751
(ltp752
a(Vh.TC4[0].apic[2](1)
p753
(lp754
F858.08476311962374
aF869.43668904932031
atp755
a(Vh.TC4[8].apic[2](1)
p756
(lp757
F82.572626107365281
atp758
a(Vh.TC4[8].apic[2](1)
p759
(lp760
F456.59363131362431
aF505.23304275817895
atp761
a(Vh.TC4[8].apic[2](1)
p762
(lp763
F1062.370035941035
aF1075.917578766821
atp764
a(Vh.TC4[8].apic[2](1)
p765
(lp766
F1456.9061062820858
aF1469.1524282019525
atp767
a(Vh.TC4[8].apic[2](1)
p768
(lp769
F213.8829623618567
aF282.69928579886465
atp770
a(Vh.TC4[8].apic[2](1)
p771
(lp772
F634.21528632309685
aF673.67270902143161
atp773
a(Vh.TC4[8].apic[2](1)
p774
(lp775
F1653.7698271715119
aF1657.6945910687243
atp776
a(Vh.TC4[8].apic[2](1)
p777
(lp778
F1271.0121741898975
aF1290.6845867729594
atp779
a(Vh.TC4[8].apic[2](1)
p780
(ltp781
a(Vh.TC4[8].apic[2](1)
p782
(lp783
F840.41144647393583
aF865.04479470815784
atp784
a(Vh.TC3[0].apic[2](1)
p785
(lp786
F48.589472529418231
atp787
a(Vh.TC3[6].apic[2](1)
p788
(lp789
F73.459339951566619
atp790
a(Vh.TC4[14].apic[2](1)
p791
(lp792
F77.845769634577195
atp793
a(Vh.TC3[0].apic[2](1)
p794
(lp795
F456.09830722362125
aF468.18571040011335
atp796
a(Vh.TC3[6].apic[2](1)
p797
(lp798
F443.91657970978486
aF449.24840563634621
atp799
a(Vh.TC4[14].apic[2](1)
p800
(lp801
F460.49465392936833
aF511.12370366928434
atp802
a(Vh.TC3[0].apic[2](1)
p803
(lp804
F1052.4640720567568
aF1119.9540987468768
atp805
a(Vh.TC3[6].apic[2](1)
p806
(lp807
F1091.4647250863895
aF1108.0148425583238
atp808
a(Vh.TC4[14].apic[2](1)
p809
(lp810
F1054.884190938315
aF1081.1587381920731
atp811
a(Vh.TC3[0].apic[2](1)
p812
(lp813
F1443.1459895383618
aF1462.1851801433809
atp814
a(Vh.TC3[6].apic[2](1)
p815
(lp816
F1478.2760562978847
aF1480.4988854607545
atp817
a(Vh.TC4[14].apic[2](1)
p818
(lp819
F1461.1224357790106
aF1471.9043985525473
atp820
a(Vh.TC3[0].apic[2](1)
p821
(lp822
F227.13082054887315
aF269.2840952100895
atp823
a(Vh.TC3[6].apic[2](1)
p824
(lp825
F237.56028426744655
aF276.74026305566798
atp826
a(Vh.TC4[14].apic[2](1)
p827
(lp828
F259.11189792626629
aF266.55516218928193
atp829
a(Vh.TC3[0].apic[2](1)
p830
(lp831
F620.55348305465509
aF654.5518809915477
atp832
a(Vh.TC3[6].apic[2](1)
p833
(lp834
F617.33934654771872
aF654.68555278916813
atp835
a(Vh.TC4[14].apic[2](1)
p836
(lp837
F634.98213818733905
aF721.88858264690919
atp838
a(Vh.TC3[0].apic[2](1)
p839
(lp840
F1650.1642828161152
aF1661.5124667551213
atp841
a(Vh.TC3[6].apic[2](1)
p842
(lp843
F1684.1253514201048
aF1693.3534088052597
atp844
a(Vh.TC4[14].apic[2](1)
p845
(lp846
F1669.6068991401871
aF1671.2067765272868
atp847
a(Vh.TC3[0].apic[2](1)
p848
(lp849
F1269.4191555566256
aF1296.2194755816047
atp850
a(Vh.TC3[6].apic[2](1)
p851
(lp852
F1253.8465920945353
aF1275.7259746407392
atp853
a(Vh.TC4[14].apic[2](1)
p854
(lp855
F1278.8561697723783
aF1324.669734489227
atp856
a(Vh.TC3[0].apic[2](1)
p857
(ltp858
a(Vh.TC3[6].apic[2](1)
p859
(ltp860
a(Vh.TC4[14].apic[2](1)
p861
(ltp862
a(Vh.TC3[0].apic[2](1)
p863
(lp864
F864.68072520674639
aF899.81219826366271
atp865
a(Vh.TC3[6].apic[2](1)
p866
(lp867
F861.24974317760973
aF909.9741609704123
atp868
a(Vh.TC4[14].apic[2](1)
p869
(lp870
F863.75707388306421
aF911.30995861812687
atp871
a(Vh.TC5[8].apic[1](1)
p872
(lp873
F29.630164843120461
atp874
a(Vh.TC5[8].apic[1](1)
p875
(lp876
F423.28628688250296
aF483.54127861092172
atp877
a(Vh.TC5[8].apic[1](1)
p878
(lp879
F1057.1813758097001
aF1102.0660634797928
atp880
a(Vh.TC5[8].apic[1](1)
p881
(lp882
F1433.7306986699118
aF1458.2280077684504
atp883
a(Vh.TC5[8].apic[1](1)
p884
(lp885
F274.88910864097232
aF317.50723524352674
atp886
a(Vh.TC5[8].apic[1](1)
p887
(lp888
F664.79510661212328
aF686.45292338899424
atp889
a(Vh.TC5[8].apic[1](1)
p890
(lp891
F1636.9604713281353
aF1649.2379594312845
atp892
a(Vh.TC5[8].apic[1](1)
p893
(lp894
F1257.9055149544142
aF1300.1517875282771
atp895
a(Vh.TC5[8].apic[1](1)
p896
(ltp897
a(Vh.TC5[8].apic[1](1)
p898
(lp899
F839.43925262370772
aF878.50217206724597
atp900
a(Vh.TC3[4].apic[2](1)
p901
(lp902
F26.722935918136415
atp903
a(Vh.TC5[14].apic[1](1)
p904
(lp905
F80.439374366284056
atp906
a(Vh.TC3[4].apic[2](1)
p907
(lp908
F456.47468498273304
aF485.57944397529207
atp909
a(Vh.TC5[14].apic[1](1)
p910
(lp911
F432.96341988884609
aF469.92391955228419
atp912
a(Vh.TC3[4].apic[2](1)
p913
(lp914
F1066.1678786023572
aF1075.7959493038293
atp915
a(Vh.TC5[14].apic[1](1)
p916
(lp917
F1021.7138335086238
aF1033.8293835134095
atp918
a(Vh.TC3[4].apic[2](1)
p919
(lp920
F1454.6715139624473
aF1462.840318322257
atp921
a(Vh.TC5[14].apic[1](1)
p922
(lp923
F1455.5303686746915
aF1475.5547357191404
atp924
a(Vh.TC3[4].apic[2](1)
p925
(lp926
F250.34963354547085
aF274.42056353120984
atp927
a(Vh.TC5[14].apic[1](1)
p928
(lp929
F246.73744145417515
aF265.73712710503298
atp930
a(Vh.TC3[4].apic[2](1)
p931
(lp932
F659.58470682468101
aF669.9469246030269
atp933
a(Vh.TC5[14].apic[1](1)
p934
(lp935
F670.16553567362723
aF683.28773364391793
atp936
a(Vh.TC3[4].apic[2](1)
p937
(lp938
F1665.1582357813691
aF1723.3121322156044
atp939
a(Vh.TC5[14].apic[1](1)
p940
(lp941
F1679.1781678241778
aF1692.7625026680089
atp942
a(Vh.TC3[4].apic[2](1)
p943
(lp944
F1256.573780870908
aF1264.7441976220828
atp945
a(Vh.TC5[14].apic[1](1)
p946
(lp947
F1283.4337324994281
aF1286.6516779131211
atp948
a(Vh.TC3[4].apic[2](1)
p949
(ltp950
a(Vh.TC5[14].apic[1](1)
p951
(ltp952
a(Vh.TC3[4].apic[2](1)
p953
(lp954
F832.76106132579719
aF839.25339279134676
atp955
a(Vh.TC5[14].apic[1](1)
p956
(lp957
F861.23807396902635
aF887.75681920074953
atp958
a(Vh.TC4[2].apic[2](1)
p959
(lp960
F49.073588680527116
atp961
a(Vh.TC4[2].apic[2](1)
p962
(lp963
F455.39425274737619
aF473.17901655413652
atp964
a(Vh.TC4[2].apic[2](1)
p965
(lp966
F1058.4373548319022
aF1076.001009679152
atp967
a(Vh.TC4[2].apic[2](1)
p968
(lp969
F1419.1078014357486
aF1449.3721130632489
atp970
a(Vh.TC4[2].apic[2](1)
p971
(lp972
F262.83743823770055
aF274.85714551271155
atp973
a(Vh.TC4[2].apic[2](1)
p974
(lp975
F636.99134651145368
aF691.42056164894257
atp976
a(Vh.TC4[2].apic[2](1)
p977
(lp978
F1602.5742621637391
aF1639.3238101828183
atp979
a(Vh.TC4[2].apic[2](1)
p980
(lp981
F1282.2298916311665
aF1319.7655186647517
atp982
a(Vh.TC4[2].apic[2](1)
p983
(ltp984
a(Vh.TC4[2].apic[2](1)
p985
(lp986
F874.4435424507484
aF877.34475230041915
atp987
a.